;--------------------------------------------------------
; File Created by SDCC : free open source ANSI-C Compiler
; Version 4.1.0 #12072 (MINGW64)
;--------------------------------------------------------
	.module code
	.optsdcc -mz80
	
;--------------------------------------------------------
; Public variables in this module
;--------------------------------------------------------
	.globl _main
	.globl _getScreenByte
	.globl _getScreenPixel
	.globl _samplePixel
	.globl _o
	.globl _angles8
	.globl _angles16
;--------------------------------------------------------
; special function registers
;--------------------------------------------------------
;--------------------------------------------------------
; ram data
;--------------------------------------------------------
	.area _DATA
;--------------------------------------------------------
; ram data
;--------------------------------------------------------
	.area _INITIALIZED
_o::
	.ds 1
;--------------------------------------------------------
; absolute external ram data
;--------------------------------------------------------
	.area _DABS (ABS)
;--------------------------------------------------------
; global & static initialisations
;--------------------------------------------------------
	.area _HOME
	.area _GSINIT
	.area _GSFINAL
	.area _GSINIT
;--------------------------------------------------------
; Home
;--------------------------------------------------------
	.area _HOME
	.area _HOME
;--------------------------------------------------------
; code
;--------------------------------------------------------
	.area _CODE
;code.c:155: bool samplePixel(short xPos, short yPos) {
;	---------------------------------
; Function samplePixel
; ---------------------------------
_samplePixel::
	call	___sdcc_enter_ix
;code.c:156: return (((xPos / precision) + ((yPos + (o * 4)) / precision)) % 2);
	ld	c, 4 (ix)
	ld	b, 5 (ix)
	ld	e, c
	ld	d, b
	bit	7, b
	jr	Z, 00103$
	ld	hl, #0x001f
	add	hl, bc
	ex	de, hl
00103$:
	ld	b, #0x05
00115$:
	sra	d
	rr	e
	djnz	00115$
	ld	a, (#_o + 0)
	ld	l, a
	ld	h, #0x00
	add	hl, hl
	add	hl, hl
	ld	a, 6 (ix)
	ld	b, 7 (ix)
	add	a, l
	ld	c, a
	ld	a, b
	adc	a, h
	ld	b, a
	ld	l, c
	ld	h, b
	bit	7, b
	jr	Z, 00104$
	ld	hl, #0x001f
	add	hl, bc
00104$:
	ld	b, #0x05
00116$:
	sra	h
	rr	l
	djnz	00116$
	add	hl, de
	ld	de, #0x0002
	push	de
	push	hl
	call	__modsint
	pop	af
	pop	af
;code.c:157: }
	pop	ix
	ret
_angles16:
	.dw #0x0000
	.dw #0x0000
	.dw #0x0000
	.dw #0x0a2f
	.dw #0x0000
	.dw #0x0517
	.dw #0x0000
	.dw #0x0364
	.dw #0x0000
	.dw #0x028b
	.dw #0x0000
	.dw #0x0208
	.dw #0x0000
	.dw #0x01b1
	.dw #0x0000
	.dw #0x0173
	.dw #0x0000
	.dw #0x0144
	.dw #0x0000
	.dw #0x0120
	.dw #0x0000
	.dw #0x0103
	.dw #0x0000
	.dw #0x00eb
	.dw #0x0000
	.dw #0x00d7
	.dw #0x0000
	.dw #0x00c6
	.dw #0x0000
	.dw #0x00b8
	.dw #0x0000
	.dw #0x00ab
	.dw #0x0000
	.dw #0x00a0
	.dw #0x0000
	.dw #0x0097
	.dw #0x0000
	.dw #0x008e
	.dw #0x0000
	.dw #0x0086
	.dw #0x0000
	.dw #0x0000
	.dw #0x004b
	.dw #0x0a2e
	.dw #0x0025
	.dw #0x0516
	.dw #0x0019
	.dw #0x0364
	.dw #0x0012
	.dw #0x028b
	.dw #0x000f
	.dw #0x0208
	.dw #0x000c
	.dw #0x01b1
	.dw #0x000a
	.dw #0x0173
	.dw #0x0009
	.dw #0x0144
	.dw #0x0008
	.dw #0x0120
	.dw #0x0007
	.dw #0x0103
	.dw #0x0006
	.dw #0x00eb
	.dw #0x0006
	.dw #0x00d7
	.dw #0x0005
	.dw #0x00c6
	.dw #0x0005
	.dw #0x00b8
	.dw #0x0004
	.dw #0x00ab
	.dw #0x0004
	.dw #0x00a0
	.dw #0x0004
	.dw #0x0097
	.dw #0x0004
	.dw #0x008e
	.dw #0x0003
	.dw #0x0086
	.dw #0x0000
	.dw #0x0000
	.dw #0x0097
	.dw #0x0a2b
	.dw #0x004b
	.dw #0x0515
	.dw #0x0032
	.dw #0x0363
	.dw #0x0025
	.dw #0x028a
	.dw #0x001e
	.dw #0x0207
	.dw #0x0019
	.dw #0x01b1
	.dw #0x0015
	.dw #0x0172
	.dw #0x0012
	.dw #0x0144
	.dw #0x0010
	.dw #0x0120
	.dw #0x000f
	.dw #0x0103
	.dw #0x000d
	.dw #0x00eb
	.dw #0x000c
	.dw #0x00d7
	.dw #0x000b
	.dw #0x00c6
	.dw #0x000a
	.dw #0x00b8
	.dw #0x0009
	.dw #0x00ab
	.dw #0x0009
	.dw #0x00a0
	.dw #0x0008
	.dw #0x0096
	.dw #0x0008
	.dw #0x008e
	.dw #0x0007
	.dw #0x0086
	.dw #0x0000
	.dw #0x0000
	.dw #0x00e3
	.dw #0x0a25
	.dw #0x0071
	.dw #0x0512
	.dw #0x004b
	.dw #0x0361
	.dw #0x0038
	.dw #0x0288
	.dw #0x002d
	.dw #0x0206
	.dw #0x0025
	.dw #0x01b0
	.dw #0x0020
	.dw #0x0172
	.dw #0x001c
	.dw #0x0143
	.dw #0x0019
	.dw #0x011f
	.dw #0x0016
	.dw #0x0102
	.dw #0x0014
	.dw #0x00ea
	.dw #0x0012
	.dw #0x00d6
	.dw #0x0011
	.dw #0x00c6
	.dw #0x0010
	.dw #0x00b7
	.dw #0x000e
	.dw #0x00ab
	.dw #0x000e
	.dw #0x00a0
	.dw #0x000d
	.dw #0x0096
	.dw #0x000c
	.dw #0x008d
	.dw #0x000b
	.dw #0x0086
	.dw #0x0000
	.dw #0x0000
	.dw #0x012e
	.dw #0x0a1d
	.dw #0x0097
	.dw #0x050e
	.dw #0x0064
	.dw #0x035e
	.dw #0x004b
	.dw #0x0286
	.dw #0x003c
	.dw #0x0205
	.dw #0x0032
	.dw #0x01ae
	.dw #0x002b
	.dw #0x0171
	.dw #0x0025
	.dw #0x0142
	.dw #0x0021
	.dw #0x011e
	.dw #0x001e
	.dw #0x0101
	.dw #0x001b
	.dw #0x00ea
	.dw #0x0019
	.dw #0x00d6
	.dw #0x0017
	.dw #0x00c5
	.dw #0x0015
	.dw #0x00b7
	.dw #0x0013
	.dw #0x00aa
	.dw #0x0012
	.dw #0x009f
	.dw #0x0011
	.dw #0x0096
	.dw #0x0010
	.dw #0x008d
	.dw #0x000f
	.dw #0x0085
	.dw #0x0000
	.dw #0x0000
	.dw #0x0179
	.dw #0x0a13
	.dw #0x00bc
	.dw #0x0509
	.dw #0x007d
	.dw #0x035b
	.dw #0x005e
	.dw #0x0284
	.dw #0x004b
	.dw #0x0203
	.dw #0x003e
	.dw #0x01ad
	.dw #0x0035
	.dw #0x016f
	.dw #0x002f
	.dw #0x0141
	.dw #0x0029
	.dw #0x011d
	.dw #0x0025
	.dw #0x0100
	.dw #0x0022
	.dw #0x00e9
	.dw #0x001f
	.dw #0x00d5
	.dw #0x001c
	.dw #0x00c4
	.dw #0x001a
	.dw #0x00b6
	.dw #0x0018
	.dw #0x00aa
	.dw #0x0017
	.dw #0x009f
	.dw #0x0015
	.dw #0x0095
	.dw #0x0014
	.dw #0x008c
	.dw #0x0013
	.dw #0x0085
	.dw #0x0000
	.dw #0x0000
	.dw #0x01c4
	.dw #0x0a07
	.dw #0x00e2
	.dw #0x0503
	.dw #0x0096
	.dw #0x0357
	.dw #0x0071
	.dw #0x0281
	.dw #0x005a
	.dw #0x0200
	.dw #0x004b
	.dw #0x01ab
	.dw #0x0040
	.dw #0x016d
	.dw #0x0038
	.dw #0x013f
	.dw #0x0032
	.dw #0x011c
	.dw #0x002d
	.dw #0x00ff
	.dw #0x0028
	.dw #0x00e8
	.dw #0x0025
	.dw #0x00d4
	.dw #0x0022
	.dw #0x00c3
	.dw #0x0020
	.dw #0x00b5
	.dw #0x001d
	.dw #0x00a9
	.dw #0x001b
	.dw #0x009e
	.dw #0x001a
	.dw #0x0094
	.dw #0x0018
	.dw #0x008c
	.dw #0x0017
	.dw #0x0084
	.dw #0x0000
	.dw #0x0000
	.dw #0x020f
	.dw #0x09f9
	.dw #0x0107
	.dw #0x04fc
	.dw #0x00af
	.dw #0x0352
	.dw #0x0083
	.dw #0x027d
	.dw #0x0069
	.dw #0x01fe
	.dw #0x0057
	.dw #0x01a8
	.dw #0x004b
	.dw #0x016b
	.dw #0x0041
	.dw #0x013e
	.dw #0x003a
	.dw #0x011a
	.dw #0x0034
	.dw #0x00fe
	.dw #0x002f
	.dw #0x00e6
	.dw #0x002b
	.dw #0x00d3
	.dw #0x0028
	.dw #0x00c2
	.dw #0x0025
	.dw #0x00b4
	.dw #0x0022
	.dw #0x00a8
	.dw #0x0020
	.dw #0x009d
	.dw #0x001e
	.dw #0x0094
	.dw #0x001c
	.dw #0x008b
	.dw #0x001b
	.dw #0x0083
	.dw #0x0000
	.dw #0x0000
	.dw #0x0259
	.dw #0x09e9
	.dw #0x012c
	.dw #0x04f4
	.dw #0x00c8
	.dw #0x034d
	.dw #0x0096
	.dw #0x0279
	.dw #0x0078
	.dw #0x01fa
	.dw #0x0064
	.dw #0x01a6
	.dw #0x0055
	.dw #0x0169
	.dw #0x004a
	.dw #0x013c
	.dw #0x0042
	.dw #0x0118
	.dw #0x003b
	.dw #0x00fc
	.dw #0x0036
	.dw #0x00e5
	.dw #0x0031
	.dw #0x00d1
	.dw #0x002d
	.dw #0x00c1
	.dw #0x002a
	.dw #0x00b3
	.dw #0x0027
	.dw #0x00a7
	.dw #0x0025
	.dw #0x009c
	.dw #0x0022
	.dw #0x0093
	.dw #0x0020
	.dw #0x008a
	.dw #0x001f
	.dw #0x0083
	.dw #0x0000
	.dw #0x0000
	.dw #0x02a2
	.dw #0x09d6
	.dw #0x0151
	.dw #0x04eb
	.dw #0x00e0
	.dw #0x0347
	.dw #0x00a8
	.dw #0x0275
	.dw #0x0086
	.dw #0x01f7
	.dw #0x0070
	.dw #0x01a3
	.dw #0x0060
	.dw #0x0166
	.dw #0x0054
	.dw #0x0139
	.dw #0x004a
	.dw #0x0116
	.dw #0x0043
	.dw #0x00fa
	.dw #0x003c
	.dw #0x00e3
	.dw #0x0037
	.dw #0x00d0
	.dw #0x0033
	.dw #0x00c0
	.dw #0x002f
	.dw #0x00b2
	.dw #0x002c
	.dw #0x00a6
	.dw #0x0029
	.dw #0x009b
	.dw #0x0027
	.dw #0x0092
	.dw #0x0024
	.dw #0x0089
	.dw #0x0022
	.dw #0x0082
	.dw #0x0000
	.dw #0x0000
	.dw #0x02eb
	.dw #0x09c1
	.dw #0x0175
	.dw #0x04e0
	.dw #0x00f9
	.dw #0x0340
	.dw #0x00ba
	.dw #0x0270
	.dw #0x0095
	.dw #0x01f2
	.dw #0x007c
	.dw #0x019f
	.dw #0x006a
	.dw #0x0163
	.dw #0x005d
	.dw #0x0137
	.dw #0x0052
	.dw #0x0114
	.dw #0x004a
	.dw #0x00f8
	.dw #0x0043
	.dw #0x00e1
	.dw #0x003d
	.dw #0x00ce
	.dw #0x0039
	.dw #0x00be
	.dw #0x0034
	.dw #0x00b0
	.dw #0x0031
	.dw #0x00a4
	.dw #0x002e
	.dw #0x009a
	.dw #0x002b
	.dw #0x0090
	.dw #0x0028
	.dw #0x0088
	.dw #0x0026
	.dw #0x0081
	.dw #0x0000
	.dw #0x0000
	.dw #0x0334
	.dw #0x09ab
	.dw #0x019a
	.dw #0x04d5
	.dw #0x0111
	.dw #0x0338
	.dw #0x00cc
	.dw #0x026a
	.dw #0x00a3
	.dw #0x01ee
	.dw #0x0088
	.dw #0x019b
	.dw #0x0074
	.dw #0x0160
	.dw #0x0066
	.dw #0x0134
	.dw #0x005a
	.dw #0x0111
	.dw #0x0051
	.dw #0x00f6
	.dw #0x004a
	.dw #0x00df
	.dw #0x0043
	.dw #0x00cc
	.dw #0x003e
	.dw #0x00bc
	.dw #0x003a
	.dw #0x00af
	.dw #0x0036
	.dw #0x00a3
	.dw #0x0032
	.dw #0x0098
	.dw #0x002f
	.dw #0x008f
	.dw #0x002c
	.dw #0x0087
	.dw #0x002a
	.dw #0x007f
	.dw #0x0000
	.dw #0x0000
	.dw #0x037b
	.dw #0x0992
	.dw #0x01bd
	.dw #0x04c8
	.dw #0x0129
	.dw #0x0330
	.dw #0x00de
	.dw #0x0264
	.dw #0x00b2
	.dw #0x01e9
	.dw #0x0094
	.dw #0x0197
	.dw #0x007f
	.dw #0x015d
	.dw #0x006f
	.dw #0x0131
	.dw #0x0062
	.dw #0x010f
	.dw #0x0058
	.dw #0x00f3
	.dw #0x0050
	.dw #0x00dd
	.dw #0x0049
	.dw #0x00ca
	.dw #0x0044
	.dw #0x00ba
	.dw #0x003f
	.dw #0x00ad
	.dw #0x003a
	.dw #0x00a1
	.dw #0x0037
	.dw #0x0097
	.dw #0x0033
	.dw #0x008e
	.dw #0x0030
	.dw #0x0085
	.dw #0x002e
	.dw #0x007e
	.dw #0x0000
	.dw #0x0000
	.dw #0x03c2
	.dw #0x0977
	.dw #0x01e1
	.dw #0x04bb
	.dw #0x0140
	.dw #0x0327
	.dw #0x00f0
	.dw #0x025d
	.dw #0x00c0
	.dw #0x01e4
	.dw #0x00a0
	.dw #0x0193
	.dw #0x0089
	.dw #0x0159
	.dw #0x0077
	.dw #0x012d
	.dw #0x006a
	.dw #0x010c
	.dw #0x005f
	.dw #0x00f1
	.dw #0x0056
	.dw #0x00da
	.dw #0x004f
	.dw #0x00c8
	.dw #0x0049
	.dw #0x00b8
	.dw #0x0044
	.dw #0x00ab
	.dw #0x003f
	.dw #0x009f
	.dw #0x003b
	.dw #0x0095
	.dw #0x0037
	.dw #0x008c
	.dw #0x0034
	.dw #0x0084
	.dw #0x0031
	.dw #0x007d
	.dw #0x0000
	.dw #0x0000
	.dw #0x0408
	.dw #0x095a
	.dw #0x0204
	.dw #0x04ac
	.dw #0x0158
	.dw #0x031d
	.dw #0x0101
	.dw #0x0256
	.dw #0x00ce
	.dw #0x01de
	.dw #0x00ab
	.dw #0x018e
	.dw #0x0093
	.dw #0x0155
	.dw #0x0080
	.dw #0x012a
	.dw #0x0072
	.dw #0x0108
	.dw #0x0066
	.dw #0x00ee
	.dw #0x005d
	.dw #0x00d8
	.dw #0x0055
	.dw #0x00c6
	.dw #0x004e
	.dw #0x00b6
	.dw #0x0049
	.dw #0x00a9
	.dw #0x0044
	.dw #0x009d
	.dw #0x003f
	.dw #0x0093
	.dw #0x003b
	.dw #0x008a
	.dw #0x0038
	.dw #0x0082
	.dw #0x0035
	.dw #0x007b
	.dw #0x0000
	.dw #0x0000
	.dw #0x044d
	.dw #0x093b
	.dw #0x0226
	.dw #0x049d
	.dw #0x016f
	.dw #0x0313
	.dw #0x0113
	.dw #0x024e
	.dw #0x00dc
	.dw #0x01d8
	.dw #0x00b7
	.dw #0x0189
	.dw #0x009d
	.dw #0x0150
	.dw #0x0089
	.dw #0x0126
	.dw #0x0079
	.dw #0x0105
	.dw #0x006d
	.dw #0x00eb
	.dw #0x0063
	.dw #0x00d5
	.dw #0x005b
	.dw #0x00c3
	.dw #0x0054
	.dw #0x00b4
	.dw #0x004d
	.dw #0x00a7
	.dw #0x0048
	.dw #0x009b
	.dw #0x0043
	.dw #0x0091
	.dw #0x003f
	.dw #0x0088
	.dw #0x003c
	.dw #0x0081
	.dw #0x0038
	.dw #0x007a
	.dw #0x0000
	.dw #0x0000
	.dw #0x0492
	.dw #0x091a
	.dw #0x0249
	.dw #0x048c
	.dw #0x0185
	.dw #0x0308
	.dw #0x0124
	.dw #0x0246
	.dw #0x00e9
	.dw #0x01d1
	.dw #0x00c2
	.dw #0x0183
	.dw #0x00a6
	.dw #0x014c
	.dw #0x0091
	.dw #0x0122
	.dw #0x0081
	.dw #0x0101
	.dw #0x0074
	.dw #0x00e7
	.dw #0x0069
	.dw #0x00d2
	.dw #0x0060
	.dw #0x00c0
	.dw #0x0059
	.dw #0x00b1
	.dw #0x0052
	.dw #0x00a4
	.dw #0x004d
	.dw #0x0099
	.dw #0x0048
	.dw #0x008f
	.dw #0x0043
	.dw #0x0087
	.dw #0x003f
	.dw #0x007f
	.dw #0x003c
	.dw #0x0078
	.dw #0x0000
	.dw #0x0000
	.dw #0x04d5
	.dw #0x08f7
	.dw #0x026a
	.dw #0x047b
	.dw #0x019c
	.dw #0x02fc
	.dw #0x0135
	.dw #0x023d
	.dw #0x00f7
	.dw #0x01ca
	.dw #0x00cd
	.dw #0x017d
	.dw #0x00b0
	.dw #0x0147
	.dw #0x009a
	.dw #0x011d
	.dw #0x0088
	.dw #0x00fd
	.dw #0x007b
	.dw #0x00e4
	.dw #0x006f
	.dw #0x00cf
	.dw #0x0066
	.dw #0x00bd
	.dw #0x005e
	.dw #0x00af
	.dw #0x0057
	.dw #0x00a2
	.dw #0x0051
	.dw #0x0097
	.dw #0x004c
	.dw #0x008d
	.dw #0x0047
	.dw #0x0085
	.dw #0x0043
	.dw #0x007d
	.dw #0x003f
	.dw #0x0076
	.dw #0x0000
	.dw #0x0000
	.dw #0x0517
	.dw #0x08d2
	.dw #0x028b
	.dw #0x0468
	.dw #0x01b2
	.dw #0x02f0
	.dw #0x0145
	.dw #0x0234
	.dw #0x0104
	.dw #0x01c3
	.dw #0x00d8
	.dw #0x0177
	.dw #0x00b9
	.dw #0x0141
	.dw #0x00a2
	.dw #0x0119
	.dw #0x0090
	.dw #0x00f9
	.dw #0x0081
	.dw #0x00e0
	.dw #0x0075
	.dw #0x00cc
	.dw #0x006b
	.dw #0x00ba
	.dw #0x0063
	.dw #0x00ac
	.dw #0x005c
	.dw #0x009f
	.dw #0x0055
	.dw #0x0094
	.dw #0x0050
	.dw #0x008b
	.dw #0x004b
	.dw #0x0082
	.dw #0x0047
	.dw #0x007b
	.dw #0x0043
	.dw #0x0074
	.dw #0x0000
	.dw #0x0000
	.dw #0x0558
	.dw #0x08ab
	.dw #0x02ac
	.dw #0x0455
	.dw #0x01c8
	.dw #0x02e3
	.dw #0x0155
	.dw #0x022a
	.dw #0x0111
	.dw #0x01bb
	.dw #0x00e3
	.dw #0x0171
	.dw #0x00c3
	.dw #0x013c
	.dw #0x00aa
	.dw #0x0114
	.dw #0x0097
	.dw #0x00f5
	.dw #0x0088
	.dw #0x00dc
	.dw #0x007b
	.dw #0x00c8
	.dw #0x0071
	.dw #0x00b7
	.dw #0x0068
	.dw #0x00a9
	.dw #0x0060
	.dw #0x009c
	.dw #0x005a
	.dw #0x0092
	.dw #0x0054
	.dw #0x0088
	.dw #0x004f
	.dw #0x0080
	.dw #0x004a
	.dw #0x0079
	.dw #0x0046
	.dw #0x0072
	.dw #0x0000
	.dw #0x0000
	.dw #0x0598
	.dw #0x0882
	.dw #0x02cc
	.dw #0x0441
	.dw #0x01dd
	.dw #0x02d5
	.dw #0x0165
	.dw #0x0220
	.dw #0x011e
	.dw #0x01b3
	.dw #0x00ee
	.dw #0x016a
	.dw #0x00cc
	.dw #0x0136
	.dw #0x00b2
	.dw #0x010f
	.dw #0x009e
	.dw #0x00f1
	.dw #0x008e
	.dw #0x00d8
	.dw #0x0081
	.dw #0x00c4
	.dw #0x0076
	.dw #0x00b4
	.dw #0x006d
	.dw #0x00a6
	.dw #0x0065
	.dw #0x009a
	.dw #0x005e
	.dw #0x008f
	.dw #0x0058
	.dw #0x0086
	.dw #0x0053
	.dw #0x007e
	.dw #0x004e
	.dw #0x0077
	.dw #0x004a
	.dw #0x0070
	.dw #0x0000
	.dw #0x0000
	.dw #0x05d7
	.dw #0x0857
	.dw #0x02eb
	.dw #0x042b
	.dw #0x01f2
	.dw #0x02c7
	.dw #0x0175
	.dw #0x0215
	.dw #0x012a
	.dw #0x01aa
	.dw #0x00f8
	.dw #0x0163
	.dw #0x00d5
	.dw #0x0130
	.dw #0x00ba
	.dw #0x010a
	.dw #0x00a5
	.dw #0x00ec
	.dw #0x0094
	.dw #0x00d4
	.dw #0x0087
	.dw #0x00c1
	.dw #0x007b
	.dw #0x00b0
	.dw #0x0072
	.dw #0x00a2
	.dw #0x0069
	.dw #0x0097
	.dw #0x0062
	.dw #0x008c
	.dw #0x005c
	.dw #0x0083
	.dw #0x0056
	.dw #0x007b
	.dw #0x0051
	.dw #0x0074
	.dw #0x004d
	.dw #0x006e
	.dw #0x0000
	.dw #0x0000
	.dw #0x0615
	.dw #0x082b
	.dw #0x030a
	.dw #0x0415
	.dw #0x0206
	.dw #0x02b8
	.dw #0x0184
	.dw #0x020a
	.dw #0x0137
	.dw #0x01a1
	.dw #0x0103
	.dw #0x015b
	.dw #0x00dd
	.dw #0x012a
	.dw #0x00c2
	.dw #0x0104
	.dw #0x00ac
	.dw #0x00e7
	.dw #0x009a
	.dw #0x00d0
	.dw #0x008c
	.dw #0x00bc
	.dw #0x0080
	.dw #0x00ad
	.dw #0x0076
	.dw #0x009f
	.dw #0x006e
	.dw #0x0093
	.dw #0x0066
	.dw #0x0089
	.dw #0x0060
	.dw #0x0081
	.dw #0x005a
	.dw #0x0079
	.dw #0x0055
	.dw #0x0072
	.dw #0x0050
	.dw #0x006c
	.dw #0x0000
	.dw #0x0000
	.dw #0x0651
	.dw #0x07fd
	.dw #0x0328
	.dw #0x03fe
	.dw #0x021a
	.dw #0x02a9
	.dw #0x0194
	.dw #0x01fe
	.dw #0x0143
	.dw #0x0198
	.dw #0x010d
	.dw #0x0154
	.dw #0x00e6
	.dw #0x0123
	.dw #0x00c9
	.dw #0x00fe
	.dw #0x00b2
	.dw #0x00e2
	.dw #0x00a0
	.dw #0x00cb
	.dw #0x0092
	.dw #0x00b8
	.dw #0x0085
	.dw #0x00a9
	.dw #0x007b
	.dw #0x009c
	.dw #0x0072
	.dw #0x0090
	.dw #0x006a
	.dw #0x0086
	.dw #0x0063
	.dw #0x007e
	.dw #0x005d
	.dw #0x0076
	.dw #0x0058
	.dw #0x006f
	.dw #0x0053
	.dw #0x0069
	.dw #0x0000
	.dw #0x0000
	.dw #0x068c
	.dw #0x07cd
	.dw #0x0345
	.dw #0x03e6
	.dw #0x022e
	.dw #0x0299
	.dw #0x01a2
	.dw #0x01f2
	.dw #0x014e
	.dw #0x018f
	.dw #0x0116
	.dw #0x014c
	.dw #0x00ee
	.dw #0x011c
	.dw #0x00d0
	.dw #0x00f8
	.dw #0x00b9
	.dw #0x00dd
	.dw #0x00a6
	.dw #0x00c6
	.dw #0x0097
	.dw #0x00b4
	.dw #0x008a
	.dw #0x00a5
	.dw #0x007f
	.dw #0x0098
	.dw #0x0076
	.dw #0x008d
	.dw #0x006e
	.dw #0x0083
	.dw #0x0067
	.dw #0x007b
	.dw #0x0061
	.dw #0x0073
	.dw #0x005b
	.dw #0x006d
	.dw #0x0056
	.dw #0x0067
	.dw #0x0000
	.dw #0x0000
	.dw #0x06c5
	.dw #0x079b
	.dw #0x0362
	.dw #0x03cd
	.dw #0x0241
	.dw #0x0289
	.dw #0x01b1
	.dw #0x01e6
	.dw #0x015a
	.dw #0x0185
	.dw #0x0120
	.dw #0x0144
	.dw #0x00f7
	.dw #0x0115
	.dw #0x00d7
	.dw #0x00f2
	.dw #0x00bf
	.dw #0x00d7
	.dw #0x00ac
	.dw #0x00c1
	.dw #0x009c
	.dw #0x00b0
	.dw #0x008f
	.dw #0x00a1
	.dw #0x0084
	.dw #0x0094
	.dw #0x007a
	.dw #0x0089
	.dw #0x0072
	.dw #0x0080
	.dw #0x006a
	.dw #0x0078
	.dw #0x0064
	.dw #0x0070
	.dw #0x005e
	.dw #0x006a
	.dw #0x0059
	.dw #0x0064
	.dw #0x0000
	.dw #0x0000
	.dw #0x06fd
	.dw #0x0768
	.dw #0x037e
	.dw #0x03b4
	.dw #0x0254
	.dw #0x0277
	.dw #0x01bf
	.dw #0x01d9
	.dw #0x0165
	.dw #0x017a
	.dw #0x0129
	.dw #0x013b
	.dw #0x00ff
	.dw #0x010e
	.dw #0x00de
	.dw #0x00ec
	.dw #0x00c6
	.dw #0x00d1
	.dw #0x00b2
	.dw #0x00bc
	.dw #0x00a1
	.dw #0x00ab
	.dw #0x0094
	.dw #0x009c
	.dw #0x0088
	.dw #0x0090
	.dw #0x007e
	.dw #0x0086
	.dw #0x0075
	.dw #0x007d
	.dw #0x006e
	.dw #0x0075
	.dw #0x0067
	.dw #0x006d
	.dw #0x0061
	.dw #0x0067
	.dw #0x005c
	.dw #0x0062
	.dw #0x0000
	.dw #0x0000
	.dw #0x0733
	.dw #0x0733
	.dw #0x0399
	.dw #0x0399
	.dw #0x0266
	.dw #0x0266
	.dw #0x01cc
	.dw #0x01cc
	.dw #0x0170
	.dw #0x0170
	.dw #0x0132
	.dw #0x0132
	.dw #0x0106
	.dw #0x0106
	.dw #0x00e5
	.dw #0x00e5
	.dw #0x00cc
	.dw #0x00cc
	.dw #0x00b7
	.dw #0x00b7
	.dw #0x00a6
	.dw #0x00a6
	.dw #0x0098
	.dw #0x0098
	.dw #0x008c
	.dw #0x008c
	.dw #0x0082
	.dw #0x0082
	.dw #0x0079
	.dw #0x0079
	.dw #0x0071
	.dw #0x0071
	.dw #0x006a
	.dw #0x006a
	.dw #0x0064
	.dw #0x0064
	.dw #0x005f
	.dw #0x005f
	.dw #0x0000
	.dw #0x0000
	.dw #0x0768
	.dw #0x06fd
	.dw #0x03b4
	.dw #0x037e
	.dw #0x0277
	.dw #0x0254
	.dw #0x01d9
	.dw #0x01bf
	.dw #0x017a
	.dw #0x0165
	.dw #0x013b
	.dw #0x0129
	.dw #0x010e
	.dw #0x00ff
	.dw #0x00ec
	.dw #0x00de
	.dw #0x00d1
	.dw #0x00c6
	.dw #0x00bc
	.dw #0x00b2
	.dw #0x00ab
	.dw #0x00a1
	.dw #0x009c
	.dw #0x0094
	.dw #0x0090
	.dw #0x0088
	.dw #0x0086
	.dw #0x007e
	.dw #0x007d
	.dw #0x0075
	.dw #0x0075
	.dw #0x006e
	.dw #0x006d
	.dw #0x0067
	.dw #0x0067
	.dw #0x0061
	.dw #0x0062
	.dw #0x005c
	.dw #0x0000
	.dw #0x0000
	.dw #0x079b
	.dw #0x06c5
	.dw #0x03cd
	.dw #0x0362
	.dw #0x0289
	.dw #0x0241
	.dw #0x01e6
	.dw #0x01b1
	.dw #0x0185
	.dw #0x015a
	.dw #0x0144
	.dw #0x0120
	.dw #0x0115
	.dw #0x00f7
	.dw #0x00f2
	.dw #0x00d7
	.dw #0x00d7
	.dw #0x00bf
	.dw #0x00c1
	.dw #0x00ac
	.dw #0x00b0
	.dw #0x009c
	.dw #0x00a1
	.dw #0x008f
	.dw #0x0094
	.dw #0x0084
	.dw #0x0089
	.dw #0x007a
	.dw #0x0080
	.dw #0x0072
	.dw #0x0078
	.dw #0x006a
	.dw #0x0070
	.dw #0x0064
	.dw #0x006a
	.dw #0x005e
	.dw #0x0064
	.dw #0x0059
	.dw #0x0000
	.dw #0x0000
	.dw #0x07cd
	.dw #0x068c
	.dw #0x03e6
	.dw #0x0345
	.dw #0x0299
	.dw #0x022e
	.dw #0x01f2
	.dw #0x01a2
	.dw #0x018f
	.dw #0x014e
	.dw #0x014c
	.dw #0x0116
	.dw #0x011c
	.dw #0x00ee
	.dw #0x00f8
	.dw #0x00d0
	.dw #0x00dd
	.dw #0x00b9
	.dw #0x00c6
	.dw #0x00a6
	.dw #0x00b4
	.dw #0x0097
	.dw #0x00a5
	.dw #0x008a
	.dw #0x0098
	.dw #0x007f
	.dw #0x008d
	.dw #0x0076
	.dw #0x0083
	.dw #0x006e
	.dw #0x007b
	.dw #0x0067
	.dw #0x0073
	.dw #0x0061
	.dw #0x006d
	.dw #0x005b
	.dw #0x0067
	.dw #0x0056
	.dw #0x0000
	.dw #0x0000
	.dw #0x07fd
	.dw #0x0651
	.dw #0x03fe
	.dw #0x0328
	.dw #0x02a9
	.dw #0x021a
	.dw #0x01fe
	.dw #0x0194
	.dw #0x0198
	.dw #0x0143
	.dw #0x0154
	.dw #0x010d
	.dw #0x0123
	.dw #0x00e6
	.dw #0x00fe
	.dw #0x00c9
	.dw #0x00e2
	.dw #0x00b2
	.dw #0x00cb
	.dw #0x00a0
	.dw #0x00b8
	.dw #0x0092
	.dw #0x00a9
	.dw #0x0085
	.dw #0x009c
	.dw #0x007b
	.dw #0x0090
	.dw #0x0072
	.dw #0x0086
	.dw #0x006a
	.dw #0x007e
	.dw #0x0063
	.dw #0x0076
	.dw #0x005d
	.dw #0x006f
	.dw #0x0058
	.dw #0x0069
	.dw #0x0053
	.dw #0x0000
	.dw #0x0000
	.dw #0x082b
	.dw #0x0615
	.dw #0x0415
	.dw #0x030a
	.dw #0x02b8
	.dw #0x0206
	.dw #0x020a
	.dw #0x0184
	.dw #0x01a1
	.dw #0x0137
	.dw #0x015b
	.dw #0x0103
	.dw #0x012a
	.dw #0x00dd
	.dw #0x0104
	.dw #0x00c2
	.dw #0x00e7
	.dw #0x00ac
	.dw #0x00d0
	.dw #0x009a
	.dw #0x00bc
	.dw #0x008c
	.dw #0x00ad
	.dw #0x0080
	.dw #0x009f
	.dw #0x0076
	.dw #0x0093
	.dw #0x006e
	.dw #0x0089
	.dw #0x0066
	.dw #0x0081
	.dw #0x0060
	.dw #0x0079
	.dw #0x005a
	.dw #0x0072
	.dw #0x0055
	.dw #0x006c
	.dw #0x0050
	.dw #0x0000
	.dw #0x0000
	.dw #0x0857
	.dw #0x05d7
	.dw #0x042b
	.dw #0x02eb
	.dw #0x02c7
	.dw #0x01f2
	.dw #0x0215
	.dw #0x0175
	.dw #0x01aa
	.dw #0x012a
	.dw #0x0163
	.dw #0x00f8
	.dw #0x0130
	.dw #0x00d5
	.dw #0x010a
	.dw #0x00ba
	.dw #0x00ec
	.dw #0x00a5
	.dw #0x00d4
	.dw #0x0094
	.dw #0x00c1
	.dw #0x0087
	.dw #0x00b0
	.dw #0x007b
	.dw #0x00a2
	.dw #0x0072
	.dw #0x0097
	.dw #0x0069
	.dw #0x008c
	.dw #0x0062
	.dw #0x0083
	.dw #0x005c
	.dw #0x007b
	.dw #0x0056
	.dw #0x0074
	.dw #0x0051
	.dw #0x006e
	.dw #0x004d
	.dw #0x0000
	.dw #0x0000
	.dw #0x0882
	.dw #0x0598
	.dw #0x0441
	.dw #0x02cc
	.dw #0x02d5
	.dw #0x01dd
	.dw #0x0220
	.dw #0x0165
	.dw #0x01b3
	.dw #0x011e
	.dw #0x016a
	.dw #0x00ee
	.dw #0x0136
	.dw #0x00cc
	.dw #0x010f
	.dw #0x00b2
	.dw #0x00f1
	.dw #0x009e
	.dw #0x00d8
	.dw #0x008e
	.dw #0x00c4
	.dw #0x0081
	.dw #0x00b4
	.dw #0x0076
	.dw #0x00a6
	.dw #0x006d
	.dw #0x009a
	.dw #0x0065
	.dw #0x008f
	.dw #0x005e
	.dw #0x0086
	.dw #0x0058
	.dw #0x007e
	.dw #0x0053
	.dw #0x0077
	.dw #0x004e
	.dw #0x0070
	.dw #0x004a
	.dw #0x0000
	.dw #0x0000
	.dw #0x08ab
	.dw #0x0558
	.dw #0x0455
	.dw #0x02ac
	.dw #0x02e3
	.dw #0x01c8
	.dw #0x022a
	.dw #0x0155
	.dw #0x01bb
	.dw #0x0111
	.dw #0x0171
	.dw #0x00e3
	.dw #0x013c
	.dw #0x00c3
	.dw #0x0114
	.dw #0x00aa
	.dw #0x00f5
	.dw #0x0097
	.dw #0x00dc
	.dw #0x0088
	.dw #0x00c8
	.dw #0x007b
	.dw #0x00b7
	.dw #0x0071
	.dw #0x00a9
	.dw #0x0068
	.dw #0x009c
	.dw #0x0060
	.dw #0x0092
	.dw #0x005a
	.dw #0x0088
	.dw #0x0054
	.dw #0x0080
	.dw #0x004f
	.dw #0x0079
	.dw #0x004a
	.dw #0x0072
	.dw #0x0046
	.dw #0x0000
	.dw #0x0000
	.dw #0x08d2
	.dw #0x0517
	.dw #0x0468
	.dw #0x028b
	.dw #0x02f0
	.dw #0x01b2
	.dw #0x0234
	.dw #0x0145
	.dw #0x01c3
	.dw #0x0104
	.dw #0x0177
	.dw #0x00d8
	.dw #0x0141
	.dw #0x00b9
	.dw #0x0119
	.dw #0x00a2
	.dw #0x00f9
	.dw #0x0090
	.dw #0x00e0
	.dw #0x0081
	.dw #0x00cc
	.dw #0x0075
	.dw #0x00ba
	.dw #0x006b
	.dw #0x00ac
	.dw #0x0063
	.dw #0x009f
	.dw #0x005c
	.dw #0x0094
	.dw #0x0055
	.dw #0x008b
	.dw #0x0050
	.dw #0x0082
	.dw #0x004b
	.dw #0x007b
	.dw #0x0047
	.dw #0x0074
	.dw #0x0043
	.dw #0x0000
	.dw #0x0000
	.dw #0x08f7
	.dw #0x04d5
	.dw #0x047b
	.dw #0x026a
	.dw #0x02fc
	.dw #0x019c
	.dw #0x023d
	.dw #0x0135
	.dw #0x01ca
	.dw #0x00f7
	.dw #0x017d
	.dw #0x00cd
	.dw #0x0147
	.dw #0x00b0
	.dw #0x011d
	.dw #0x009a
	.dw #0x00fd
	.dw #0x0088
	.dw #0x00e4
	.dw #0x007b
	.dw #0x00cf
	.dw #0x006f
	.dw #0x00bd
	.dw #0x0066
	.dw #0x00af
	.dw #0x005e
	.dw #0x00a2
	.dw #0x0057
	.dw #0x0097
	.dw #0x0051
	.dw #0x008d
	.dw #0x004c
	.dw #0x0085
	.dw #0x0047
	.dw #0x007d
	.dw #0x0043
	.dw #0x0076
	.dw #0x003f
	.dw #0x0000
	.dw #0x0000
	.dw #0x091a
	.dw #0x0492
	.dw #0x048c
	.dw #0x0249
	.dw #0x0308
	.dw #0x0185
	.dw #0x0246
	.dw #0x0124
	.dw #0x01d1
	.dw #0x00e9
	.dw #0x0183
	.dw #0x00c2
	.dw #0x014c
	.dw #0x00a6
	.dw #0x0122
	.dw #0x0091
	.dw #0x0101
	.dw #0x0081
	.dw #0x00e7
	.dw #0x0074
	.dw #0x00d2
	.dw #0x0069
	.dw #0x00c0
	.dw #0x0060
	.dw #0x00b1
	.dw #0x0059
	.dw #0x00a4
	.dw #0x0052
	.dw #0x0099
	.dw #0x004d
	.dw #0x008f
	.dw #0x0048
	.dw #0x0087
	.dw #0x0043
	.dw #0x007f
	.dw #0x003f
	.dw #0x0078
	.dw #0x003c
	.dw #0x0000
	.dw #0x0000
	.dw #0x093b
	.dw #0x044d
	.dw #0x049d
	.dw #0x0226
	.dw #0x0313
	.dw #0x016f
	.dw #0x024e
	.dw #0x0113
	.dw #0x01d8
	.dw #0x00dc
	.dw #0x0189
	.dw #0x00b7
	.dw #0x0150
	.dw #0x009d
	.dw #0x0126
	.dw #0x0089
	.dw #0x0105
	.dw #0x0079
	.dw #0x00eb
	.dw #0x006d
	.dw #0x00d5
	.dw #0x0063
	.dw #0x00c3
	.dw #0x005b
	.dw #0x00b4
	.dw #0x0054
	.dw #0x00a7
	.dw #0x004d
	.dw #0x009b
	.dw #0x0048
	.dw #0x0091
	.dw #0x0043
	.dw #0x0088
	.dw #0x003f
	.dw #0x0081
	.dw #0x003c
	.dw #0x007a
	.dw #0x0038
	.dw #0x0000
	.dw #0x0000
	.dw #0x095a
	.dw #0x0408
	.dw #0x04ac
	.dw #0x0204
	.dw #0x031d
	.dw #0x0158
	.dw #0x0256
	.dw #0x0101
	.dw #0x01de
	.dw #0x00ce
	.dw #0x018e
	.dw #0x00ab
	.dw #0x0155
	.dw #0x0093
	.dw #0x012a
	.dw #0x0080
	.dw #0x0108
	.dw #0x0072
	.dw #0x00ee
	.dw #0x0066
	.dw #0x00d8
	.dw #0x005d
	.dw #0x00c6
	.dw #0x0055
	.dw #0x00b6
	.dw #0x004e
	.dw #0x00a9
	.dw #0x0049
	.dw #0x009d
	.dw #0x0044
	.dw #0x0093
	.dw #0x003f
	.dw #0x008a
	.dw #0x003b
	.dw #0x0082
	.dw #0x0038
	.dw #0x007b
	.dw #0x0035
	.dw #0x0000
	.dw #0x0000
	.dw #0x0977
	.dw #0x03c2
	.dw #0x04bb
	.dw #0x01e1
	.dw #0x0327
	.dw #0x0140
	.dw #0x025d
	.dw #0x00f0
	.dw #0x01e4
	.dw #0x00c0
	.dw #0x0193
	.dw #0x00a0
	.dw #0x0159
	.dw #0x0089
	.dw #0x012d
	.dw #0x0077
	.dw #0x010c
	.dw #0x006a
	.dw #0x00f1
	.dw #0x005f
	.dw #0x00da
	.dw #0x0056
	.dw #0x00c8
	.dw #0x004f
	.dw #0x00b8
	.dw #0x0049
	.dw #0x00ab
	.dw #0x0044
	.dw #0x009f
	.dw #0x003f
	.dw #0x0095
	.dw #0x003b
	.dw #0x008c
	.dw #0x0037
	.dw #0x0084
	.dw #0x0034
	.dw #0x007d
	.dw #0x0031
	.dw #0x0000
	.dw #0x0000
	.dw #0x0992
	.dw #0x037b
	.dw #0x04c8
	.dw #0x01bd
	.dw #0x0330
	.dw #0x0129
	.dw #0x0264
	.dw #0x00de
	.dw #0x01e9
	.dw #0x00b2
	.dw #0x0197
	.dw #0x0094
	.dw #0x015d
	.dw #0x007f
	.dw #0x0131
	.dw #0x006f
	.dw #0x010f
	.dw #0x0062
	.dw #0x00f3
	.dw #0x0058
	.dw #0x00dd
	.dw #0x0050
	.dw #0x00ca
	.dw #0x0049
	.dw #0x00ba
	.dw #0x0044
	.dw #0x00ad
	.dw #0x003f
	.dw #0x00a1
	.dw #0x003a
	.dw #0x0097
	.dw #0x0037
	.dw #0x008e
	.dw #0x0033
	.dw #0x0085
	.dw #0x0030
	.dw #0x007e
	.dw #0x002e
	.dw #0x0000
	.dw #0x0000
	.dw #0x09ab
	.dw #0x0334
	.dw #0x04d5
	.dw #0x019a
	.dw #0x0338
	.dw #0x0111
	.dw #0x026a
	.dw #0x00cc
	.dw #0x01ee
	.dw #0x00a3
	.dw #0x019b
	.dw #0x0088
	.dw #0x0160
	.dw #0x0074
	.dw #0x0134
	.dw #0x0066
	.dw #0x0111
	.dw #0x005a
	.dw #0x00f6
	.dw #0x0051
	.dw #0x00df
	.dw #0x004a
	.dw #0x00cc
	.dw #0x0043
	.dw #0x00bc
	.dw #0x003e
	.dw #0x00af
	.dw #0x003a
	.dw #0x00a3
	.dw #0x0036
	.dw #0x0098
	.dw #0x0032
	.dw #0x008f
	.dw #0x002f
	.dw #0x0087
	.dw #0x002c
	.dw #0x007f
	.dw #0x002a
	.dw #0x0000
	.dw #0x0000
	.dw #0x09c1
	.dw #0x02eb
	.dw #0x04e0
	.dw #0x0175
	.dw #0x0340
	.dw #0x00f9
	.dw #0x0270
	.dw #0x00ba
	.dw #0x01f2
	.dw #0x0095
	.dw #0x019f
	.dw #0x007c
	.dw #0x0163
	.dw #0x006a
	.dw #0x0137
	.dw #0x005d
	.dw #0x0114
	.dw #0x0052
	.dw #0x00f8
	.dw #0x004a
	.dw #0x00e1
	.dw #0x0043
	.dw #0x00ce
	.dw #0x003d
	.dw #0x00be
	.dw #0x0039
	.dw #0x00b0
	.dw #0x0034
	.dw #0x00a4
	.dw #0x0031
	.dw #0x009a
	.dw #0x002e
	.dw #0x0090
	.dw #0x002b
	.dw #0x0088
	.dw #0x0028
	.dw #0x0081
	.dw #0x0026
	.dw #0x0000
	.dw #0x0000
	.dw #0x09d6
	.dw #0x02a2
	.dw #0x04eb
	.dw #0x0151
	.dw #0x0347
	.dw #0x00e0
	.dw #0x0275
	.dw #0x00a8
	.dw #0x01f7
	.dw #0x0086
	.dw #0x01a3
	.dw #0x0070
	.dw #0x0166
	.dw #0x0060
	.dw #0x0139
	.dw #0x0054
	.dw #0x0116
	.dw #0x004a
	.dw #0x00fa
	.dw #0x0043
	.dw #0x00e3
	.dw #0x003c
	.dw #0x00d0
	.dw #0x0037
	.dw #0x00c0
	.dw #0x0033
	.dw #0x00b2
	.dw #0x002f
	.dw #0x00a6
	.dw #0x002c
	.dw #0x009b
	.dw #0x0029
	.dw #0x0092
	.dw #0x0027
	.dw #0x0089
	.dw #0x0024
	.dw #0x0082
	.dw #0x0022
	.dw #0x0000
	.dw #0x0000
	.dw #0x09e9
	.dw #0x0259
	.dw #0x04f4
	.dw #0x012c
	.dw #0x034d
	.dw #0x00c8
	.dw #0x0279
	.dw #0x0096
	.dw #0x01fa
	.dw #0x0078
	.dw #0x01a6
	.dw #0x0064
	.dw #0x0169
	.dw #0x0055
	.dw #0x013c
	.dw #0x004a
	.dw #0x0118
	.dw #0x0042
	.dw #0x00fc
	.dw #0x003b
	.dw #0x00e5
	.dw #0x0036
	.dw #0x00d1
	.dw #0x0031
	.dw #0x00c1
	.dw #0x002d
	.dw #0x00b3
	.dw #0x002a
	.dw #0x00a7
	.dw #0x0027
	.dw #0x009c
	.dw #0x0025
	.dw #0x0093
	.dw #0x0022
	.dw #0x008a
	.dw #0x0020
	.dw #0x0083
	.dw #0x001f
	.dw #0x0000
	.dw #0x0000
	.dw #0x09f9
	.dw #0x020f
	.dw #0x04fc
	.dw #0x0107
	.dw #0x0352
	.dw #0x00af
	.dw #0x027d
	.dw #0x0083
	.dw #0x01fe
	.dw #0x0069
	.dw #0x01a8
	.dw #0x0057
	.dw #0x016b
	.dw #0x004b
	.dw #0x013e
	.dw #0x0041
	.dw #0x011a
	.dw #0x003a
	.dw #0x00fe
	.dw #0x0034
	.dw #0x00e6
	.dw #0x002f
	.dw #0x00d3
	.dw #0x002b
	.dw #0x00c2
	.dw #0x0028
	.dw #0x00b4
	.dw #0x0025
	.dw #0x00a8
	.dw #0x0022
	.dw #0x009d
	.dw #0x0020
	.dw #0x0094
	.dw #0x001e
	.dw #0x008b
	.dw #0x001c
	.dw #0x0083
	.dw #0x001b
	.dw #0x0000
	.dw #0x0000
	.dw #0x0a07
	.dw #0x01c4
	.dw #0x0503
	.dw #0x00e2
	.dw #0x0357
	.dw #0x0096
	.dw #0x0281
	.dw #0x0071
	.dw #0x0200
	.dw #0x005a
	.dw #0x01ab
	.dw #0x004b
	.dw #0x016d
	.dw #0x0040
	.dw #0x013f
	.dw #0x0038
	.dw #0x011c
	.dw #0x0032
	.dw #0x00ff
	.dw #0x002d
	.dw #0x00e8
	.dw #0x0028
	.dw #0x00d4
	.dw #0x0025
	.dw #0x00c3
	.dw #0x0022
	.dw #0x00b5
	.dw #0x0020
	.dw #0x00a9
	.dw #0x001d
	.dw #0x009e
	.dw #0x001b
	.dw #0x0094
	.dw #0x001a
	.dw #0x008c
	.dw #0x0018
	.dw #0x0084
	.dw #0x0017
	.dw #0x0000
	.dw #0x0000
	.dw #0x0a13
	.dw #0x0179
	.dw #0x0509
	.dw #0x00bc
	.dw #0x035b
	.dw #0x007d
	.dw #0x0284
	.dw #0x005e
	.dw #0x0203
	.dw #0x004b
	.dw #0x01ad
	.dw #0x003e
	.dw #0x016f
	.dw #0x0035
	.dw #0x0141
	.dw #0x002f
	.dw #0x011d
	.dw #0x0029
	.dw #0x0100
	.dw #0x0025
	.dw #0x00e9
	.dw #0x0022
	.dw #0x00d5
	.dw #0x001f
	.dw #0x00c4
	.dw #0x001c
	.dw #0x00b6
	.dw #0x001a
	.dw #0x00aa
	.dw #0x0018
	.dw #0x009f
	.dw #0x0017
	.dw #0x0095
	.dw #0x0015
	.dw #0x008c
	.dw #0x0014
	.dw #0x0085
	.dw #0x0013
	.dw #0x0000
	.dw #0x0000
	.dw #0x0a1d
	.dw #0x012e
	.dw #0x050e
	.dw #0x0097
	.dw #0x035e
	.dw #0x0064
	.dw #0x0286
	.dw #0x004b
	.dw #0x0205
	.dw #0x003c
	.dw #0x01ae
	.dw #0x0032
	.dw #0x0171
	.dw #0x002b
	.dw #0x0142
	.dw #0x0025
	.dw #0x011e
	.dw #0x0021
	.dw #0x0101
	.dw #0x001e
	.dw #0x00ea
	.dw #0x001b
	.dw #0x00d6
	.dw #0x0019
	.dw #0x00c5
	.dw #0x0017
	.dw #0x00b7
	.dw #0x0015
	.dw #0x00aa
	.dw #0x0013
	.dw #0x009f
	.dw #0x0012
	.dw #0x0096
	.dw #0x0011
	.dw #0x008d
	.dw #0x0010
	.dw #0x0085
	.dw #0x000f
	.dw #0x0000
	.dw #0x0000
	.dw #0x0a25
	.dw #0x00e3
	.dw #0x0512
	.dw #0x0071
	.dw #0x0361
	.dw #0x004b
	.dw #0x0288
	.dw #0x0038
	.dw #0x0206
	.dw #0x002d
	.dw #0x01b0
	.dw #0x0025
	.dw #0x0172
	.dw #0x0020
	.dw #0x0143
	.dw #0x001c
	.dw #0x011f
	.dw #0x0019
	.dw #0x0102
	.dw #0x0016
	.dw #0x00ea
	.dw #0x0014
	.dw #0x00d6
	.dw #0x0012
	.dw #0x00c6
	.dw #0x0011
	.dw #0x00b7
	.dw #0x0010
	.dw #0x00ab
	.dw #0x000e
	.dw #0x00a0
	.dw #0x000e
	.dw #0x0096
	.dw #0x000d
	.dw #0x008d
	.dw #0x000c
	.dw #0x0086
	.dw #0x000b
	.dw #0x0000
	.dw #0x0000
	.dw #0x0a2b
	.dw #0x0097
	.dw #0x0515
	.dw #0x004b
	.dw #0x0363
	.dw #0x0032
	.dw #0x028a
	.dw #0x0025
	.dw #0x0207
	.dw #0x001e
	.dw #0x01b1
	.dw #0x0019
	.dw #0x0172
	.dw #0x0015
	.dw #0x0144
	.dw #0x0012
	.dw #0x0120
	.dw #0x0010
	.dw #0x0103
	.dw #0x000f
	.dw #0x00eb
	.dw #0x000d
	.dw #0x00d7
	.dw #0x000c
	.dw #0x00c6
	.dw #0x000b
	.dw #0x00b8
	.dw #0x000a
	.dw #0x00ab
	.dw #0x0009
	.dw #0x00a0
	.dw #0x0009
	.dw #0x0096
	.dw #0x0008
	.dw #0x008e
	.dw #0x0008
	.dw #0x0086
	.dw #0x0007
	.dw #0x0000
	.dw #0x0000
	.dw #0x0a2e
	.dw #0x004b
	.dw #0x0516
	.dw #0x0025
	.dw #0x0364
	.dw #0x0019
	.dw #0x028b
	.dw #0x0012
	.dw #0x0208
	.dw #0x000f
	.dw #0x01b1
	.dw #0x000c
	.dw #0x0173
	.dw #0x000a
	.dw #0x0144
	.dw #0x0009
	.dw #0x0120
	.dw #0x0008
	.dw #0x0103
	.dw #0x0007
	.dw #0x00eb
	.dw #0x0006
	.dw #0x00d7
	.dw #0x0006
	.dw #0x00c6
	.dw #0x0005
	.dw #0x00b8
	.dw #0x0005
	.dw #0x00ab
	.dw #0x0004
	.dw #0x00a0
	.dw #0x0004
	.dw #0x0097
	.dw #0x0004
	.dw #0x008e
	.dw #0x0004
	.dw #0x0086
	.dw #0x0003
_angles8:
	.db #0x00	; 0
	.db #0x7f	; 127
	.db #0x00	; 0
	.db #0x79	; 121	'y'
	.db #0x00	; 0
	.db #0x73	; 115	's'
	.db #0x00	; 0
	.db #0x6e	; 110	'n'
	.db #0x00	; 0
	.db #0x69	; 105	'i'
	.db #0x00	; 0
	.db #0x65	; 101	'e'
	.db #0x00	; 0
	.db #0x60	; 96
	.db #0x00	; 0
	.db #0x5d	; 93
	.db #0x00	; 0
	.db #0x59	; 89	'Y'
	.db #0x00	; 0
	.db #0x56	; 86	'V'
	.db #0x00	; 0
	.db #0x52	; 82	'R'
	.db #0x00	; 0
	.db #0x50	; 80	'P'
	.db #0x03	; 3
	.db #0x7f	; 127
	.db #0x03	; 3
	.db #0x79	; 121	'y'
	.db #0x03	; 3
	.db #0x73	; 115	's'
	.db #0x03	; 3
	.db #0x6e	; 110	'n'
	.db #0x03	; 3
	.db #0x69	; 105	'i'
	.db #0x02	; 2
	.db #0x64	; 100	'd'
	.db #0x02	; 2
	.db #0x60	; 96
	.db #0x02	; 2
	.db #0x5c	; 92
	.db #0x02	; 2
	.db #0x59	; 89	'Y'
	.db #0x02	; 2
	.db #0x56	; 86	'V'
	.db #0x02	; 2
	.db #0x52	; 82	'R'
	.db #0x02	; 2
	.db #0x4f	; 79	'O'
	.db #0x07	; 7
	.db #0x7f	; 127
	.db #0x07	; 7
	.db #0x79	; 121	'y'
	.db #0x06	; 6
	.db #0x73	; 115	's'
	.db #0x06	; 6
	.db #0x6e	; 110	'n'
	.db #0x06	; 6
	.db #0x69	; 105	'i'
	.db #0x05	; 5
	.db #0x64	; 100	'd'
	.db #0x05	; 5
	.db #0x60	; 96
	.db #0x05	; 5
	.db #0x5c	; 92
	.db #0x05	; 5
	.db #0x59	; 89	'Y'
	.db #0x05	; 5
	.db #0x55	; 85	'U'
	.db #0x04	; 4
	.db #0x52	; 82	'R'
	.db #0x04	; 4
	.db #0x4f	; 79	'O'
	.db #0x0b	; 11
	.db #0x7f	; 127
	.db #0x0a	; 10
	.db #0x78	; 120	'x'
	.db #0x0a	; 10
	.db #0x73	; 115	's'
	.db #0x09	; 9
	.db #0x6d	; 109	'm'
	.db #0x09	; 9
	.db #0x69	; 105	'i'
	.db #0x08	; 8
	.db #0x64	; 100	'd'
	.db #0x08	; 8
	.db #0x60	; 96
	.db #0x08	; 8
	.db #0x5c	; 92
	.db #0x07	; 7
	.db #0x59	; 89	'Y'
	.db #0x07	; 7
	.db #0x55	; 85	'U'
	.db #0x07	; 7
	.db #0x52	; 82	'R'
	.db #0x06	; 6
	.db #0x4f	; 79	'O'
	.db #0x0e	; 14
	.db #0x7e	; 126
	.db #0x0e	; 14
	.db #0x78	; 120	'x'
	.db #0x0d	; 13
	.db #0x72	; 114	'r'
	.db #0x0c	; 12
	.db #0x6d	; 109	'm'
	.db #0x0c	; 12
	.db #0x68	; 104	'h'
	.db #0x0b	; 11
	.db #0x64	; 100	'd'
	.db #0x0b	; 11
	.db #0x60	; 96
	.db #0x0a	; 10
	.db #0x5c	; 92
	.db #0x0a	; 10
	.db #0x58	; 88	'X'
	.db #0x09	; 9
	.db #0x55	; 85	'U'
	.db #0x09	; 9
	.db #0x52	; 82	'R'
	.db #0x09	; 9
	.db #0x4f	; 79	'O'
	.db #0x12	; 18
	.db #0x7e	; 126
	.db #0x11	; 17
	.db #0x78	; 120	'x'
	.db #0x10	; 16
	.db #0x72	; 114	'r'
	.db #0x0f	; 15
	.db #0x6d	; 109	'm'
	.db #0x0f	; 15
	.db #0x68	; 104	'h'
	.db #0x0e	; 14
	.db #0x63	; 99	'c'
	.db #0x0e	; 14
	.db #0x5f	; 95
	.db #0x0d	; 13
	.db #0x5c	; 92
	.db #0x0c	; 12
	.db #0x58	; 88	'X'
	.db #0x0c	; 12
	.db #0x55	; 85	'U'
	.db #0x0c	; 12
	.db #0x52	; 82	'R'
	.db #0x0b	; 11
	.db #0x4f	; 79	'O'
	.db #0x16	; 22
	.db #0x7d	; 125
	.db #0x15	; 21
	.db #0x77	; 119	'w'
	.db #0x14	; 20
	.db #0x71	; 113	'q'
	.db #0x13	; 19
	.db #0x6c	; 108	'l'
	.db #0x12	; 18
	.db #0x67	; 103	'g'
	.db #0x11	; 17
	.db #0x63	; 99	'c'
	.db #0x10	; 16
	.db #0x5f	; 95
	.db #0x10	; 16
	.db #0x5b	; 91
	.db #0x0f	; 15
	.db #0x58	; 88	'X'
	.db #0x0e	; 14
	.db #0x54	; 84	'T'
	.db #0x0e	; 14
	.db #0x51	; 81	'Q'
	.db #0x0d	; 13
	.db #0x4e	; 78	'N'
	.db #0x19	; 25
	.db #0x7d	; 125
	.db #0x18	; 24
	.db #0x76	; 118	'v'
	.db #0x17	; 23
	.db #0x71	; 113	'q'
	.db #0x16	; 22
	.db #0x6c	; 108	'l'
	.db #0x15	; 21
	.db #0x67	; 103	'g'
	.db #0x14	; 20
	.db #0x62	; 98	'b'
	.db #0x13	; 19
	.db #0x5e	; 94
	.db #0x12	; 18
	.db #0x5b	; 91
	.db #0x12	; 18
	.db #0x57	; 87	'W'
	.db #0x11	; 17
	.db #0x54	; 84	'T'
	.db #0x10	; 16
	.db #0x51	; 81	'Q'
	.db #0x10	; 16
	.db #0x4e	; 78	'N'
	.db #0x1d	; 29
	.db #0x7c	; 124
	.db #0x1b	; 27
	.db #0x76	; 118	'v'
	.db #0x1a	; 26
	.db #0x70	; 112	'p'
	.db #0x19	; 25
	.db #0x6b	; 107	'k'
	.db #0x18	; 24
	.db #0x66	; 102	'f'
	.db #0x17	; 23
	.db #0x62	; 98	'b'
	.db #0x16	; 22
	.db #0x5e	; 94
	.db #0x15	; 21
	.db #0x5a	; 90	'Z'
	.db #0x14	; 20
	.db #0x57	; 87	'W'
	.db #0x13	; 19
	.db #0x53	; 83	'S'
	.db #0x13	; 19
	.db #0x50	; 80	'P'
	.db #0x12	; 18
	.db #0x4d	; 77	'M'
	.db #0x21	; 33
	.db #0x7b	; 123
	.db #0x1f	; 31
	.db #0x75	; 117	'u'
	.db #0x1d	; 29
	.db #0x6f	; 111	'o'
	.db #0x1c	; 28
	.db #0x6a	; 106	'j'
	.db #0x1b	; 27
	.db #0x65	; 101	'e'
	.db #0x1a	; 26
	.db #0x61	; 97	'a'
	.db #0x19	; 25
	.db #0x5d	; 93
	.db #0x18	; 24
	.db #0x59	; 89	'Y'
	.db #0x17	; 23
	.db #0x56	; 86	'V'
	.db #0x16	; 22
	.db #0x53	; 83	'S'
	.db #0x15	; 21
	.db #0x50	; 80	'P'
	.db #0x14	; 20
	.db #0x4d	; 77	'M'
	.db #0x24	; 36
	.db #0x7a	; 122	'z'
	.db #0x22	; 34
	.db #0x74	; 116	't'
	.db #0x21	; 33
	.db #0x6e	; 110	'n'
	.db #0x1f	; 31
	.db #0x69	; 105	'i'
	.db #0x1e	; 30
	.db #0x65	; 101	'e'
	.db #0x1c	; 28
	.db #0x60	; 96
	.db #0x1b	; 27
	.db #0x5c	; 92
	.db #0x1a	; 26
	.db #0x59	; 89	'Y'
	.db #0x19	; 25
	.db #0x55	; 85	'U'
	.db #0x18	; 24
	.db #0x52	; 82	'R'
	.db #0x17	; 23
	.db #0x4f	; 79	'O'
	.db #0x16	; 22
	.db #0x4c	; 76	'L'
	.db #0x28	; 40
	.db #0x79	; 121	'y'
	.db #0x26	; 38
	.db #0x73	; 115	's'
	.db #0x24	; 36
	.db #0x6d	; 109	'm'
	.db #0x22	; 34
	.db #0x68	; 104	'h'
	.db #0x21	; 33
	.db #0x64	; 100	'd'
	.db #0x1f	; 31
	.db #0x5f	; 95
	.db #0x1e	; 30
	.db #0x5b	; 91
	.db #0x1d	; 29
	.db #0x58	; 88	'X'
	.db #0x1c	; 28
	.db #0x54	; 84	'T'
	.db #0x1b	; 27
	.db #0x51	; 81	'Q'
	.db #0x1a	; 26
	.db #0x4e	; 78	'N'
	.db #0x19	; 25
	.db #0x4b	; 75	'K'
	.db #0x2b	; 43
	.db #0x78	; 120	'x'
	.db #0x29	; 41
	.db #0x72	; 114	'r'
	.db #0x27	; 39
	.db #0x6c	; 108	'l'
	.db #0x25	; 37
	.db #0x67	; 103	'g'
	.db #0x24	; 36
	.db #0x63	; 99	'c'
	.db #0x22	; 34
	.db #0x5e	; 94
	.db #0x21	; 33
	.db #0x5b	; 91
	.db #0x1f	; 31
	.db #0x57	; 87	'W'
	.db #0x1e	; 30
	.db #0x54	; 84	'T'
	.db #0x1d	; 29
	.db #0x50	; 80	'P'
	.db #0x1c	; 28
	.db #0x4d	; 77	'M'
	.db #0x1b	; 27
	.db #0x4b	; 75	'K'
	.db #0x2f	; 47
	.db #0x76	; 118	'v'
	.db #0x2c	; 44
	.db #0x70	; 112	'p'
	.db #0x2a	; 42
	.db #0x6b	; 107	'k'
	.db #0x28	; 40
	.db #0x66	; 102	'f'
	.db #0x26	; 38
	.db #0x62	; 98	'b'
	.db #0x25	; 37
	.db #0x5d	; 93
	.db #0x23	; 35
	.db #0x5a	; 90	'Z'
	.db #0x22	; 34
	.db #0x56	; 86	'V'
	.db #0x21	; 33
	.db #0x53	; 83	'S'
	.db #0x1f	; 31
	.db #0x50	; 80	'P'
	.db #0x1e	; 30
	.db #0x4d	; 77	'M'
	.db #0x1d	; 29
	.db #0x4a	; 74	'J'
	.db #0x32	; 50	'2'
	.db #0x75	; 117	'u'
	.db #0x30	; 48	'0'
	.db #0x6f	; 111	'o'
	.db #0x2d	; 45
	.db #0x6a	; 106	'j'
	.db #0x2b	; 43
	.db #0x65	; 101	'e'
	.db #0x29	; 41
	.db #0x60	; 96
	.db #0x28	; 40
	.db #0x5c	; 92
	.db #0x26	; 38
	.db #0x58	; 88	'X'
	.db #0x24	; 36
	.db #0x55	; 85	'U'
	.db #0x23	; 35
	.db #0x52	; 82	'R'
	.db #0x22	; 34
	.db #0x4f	; 79	'O'
	.db #0x20	; 32
	.db #0x4c	; 76	'L'
	.db #0x1f	; 31
	.db #0x49	; 73	'I'
	.db #0x35	; 53	'5'
	.db #0x73	; 115	's'
	.db #0x33	; 51	'3'
	.db #0x6e	; 110	'n'
	.db #0x30	; 48	'0'
	.db #0x68	; 104	'h'
	.db #0x2e	; 46
	.db #0x64	; 100	'd'
	.db #0x2c	; 44
	.db #0x5f	; 95
	.db #0x2a	; 42
	.db #0x5b	; 91
	.db #0x28	; 40
	.db #0x57	; 87	'W'
	.db #0x27	; 39
	.db #0x54	; 84	'T'
	.db #0x25	; 37
	.db #0x51	; 81	'Q'
	.db #0x24	; 36
	.db #0x4e	; 78	'N'
	.db #0x23	; 35
	.db #0x4b	; 75	'K'
	.db #0x21	; 33
	.db #0x48	; 72	'H'
	.db #0x39	; 57	'9'
	.db #0x72	; 114	'r'
	.db #0x36	; 54	'6'
	.db #0x6c	; 108	'l'
	.db #0x33	; 51	'3'
	.db #0x67	; 103	'g'
	.db #0x31	; 49	'1'
	.db #0x62	; 98	'b'
	.db #0x2f	; 47
	.db #0x5e	; 94
	.db #0x2d	; 45
	.db #0x5a	; 90	'Z'
	.db #0x2b	; 43
	.db #0x56	; 86	'V'
	.db #0x29	; 41
	.db #0x53	; 83	'S'
	.db #0x28	; 40
	.db #0x4f	; 79	'O'
	.db #0x26	; 38
	.db #0x4c	; 76	'L'
	.db #0x25	; 37
	.db #0x4a	; 74	'J'
	.db #0x23	; 35
	.db #0x47	; 71	'G'
	.db #0x3c	; 60
	.db #0x70	; 112	'p'
	.db #0x39	; 57	'9'
	.db #0x6a	; 106	'j'
	.db #0x36	; 54	'6'
	.db #0x65	; 101	'e'
	.db #0x34	; 52	'4'
	.db #0x61	; 97	'a'
	.db #0x32	; 50	'2'
	.db #0x5c	; 92
	.db #0x2f	; 47
	.db #0x58	; 88	'X'
	.db #0x2d	; 45
	.db #0x55	; 85	'U'
	.db #0x2c	; 44
	.db #0x51	; 81	'Q'
	.db #0x2a	; 42
	.db #0x4e	; 78	'N'
	.db #0x28	; 40
	.db #0x4b	; 75	'K'
	.db #0x27	; 39
	.db #0x49	; 73	'I'
	.db #0x25	; 37
	.db #0x46	; 70	'F'
	.db #0x3f	; 63
	.db #0x6e	; 110	'n'
	.db #0x3c	; 60
	.db #0x69	; 105	'i'
	.db #0x39	; 57	'9'
	.db #0x64	; 100	'd'
	.db #0x37	; 55	'7'
	.db #0x5f	; 95
	.db #0x34	; 52	'4'
	.db #0x5b	; 91
	.db #0x32	; 50	'2'
	.db #0x57	; 87	'W'
	.db #0x30	; 48	'0'
	.db #0x53	; 83	'S'
	.db #0x2e	; 46
	.db #0x50	; 80	'P'
	.db #0x2c	; 44
	.db #0x4d	; 77	'M'
	.db #0x2b	; 43
	.db #0x4a	; 74	'J'
	.db #0x29	; 41
	.db #0x47	; 71	'G'
	.db #0x28	; 40
	.db #0x45	; 69	'E'
	.db #0x43	; 67	'C'
	.db #0x6c	; 108	'l'
	.db #0x3f	; 63
	.db #0x67	; 103	'g'
	.db #0x3c	; 60
	.db #0x62	; 98	'b'
	.db #0x39	; 57	'9'
	.db #0x5d	; 93
	.db #0x37	; 55	'7'
	.db #0x59	; 89	'Y'
	.db #0x35	; 53	'5'
	.db #0x55	; 85	'U'
	.db #0x32	; 50	'2'
	.db #0x52	; 82	'R'
	.db #0x30	; 48	'0'
	.db #0x4f	; 79	'O'
	.db #0x2e	; 46
	.db #0x4c	; 76	'L'
	.db #0x2d	; 45
	.db #0x49	; 73	'I'
	.db #0x2b	; 43
	.db #0x46	; 70	'F'
	.db #0x2a	; 42
	.db #0x44	; 68	'D'
	.db #0x46	; 70	'F'
	.db #0x6a	; 106	'j'
	.db #0x42	; 66	'B'
	.db #0x65	; 101	'e'
	.db #0x3f	; 63
	.db #0x60	; 96
	.db #0x3c	; 60
	.db #0x5c	; 92
	.db #0x39	; 57	'9'
	.db #0x58	; 88	'X'
	.db #0x37	; 55	'7'
	.db #0x54	; 84	'T'
	.db #0x35	; 53	'5'
	.db #0x50	; 80	'P'
	.db #0x33	; 51	'3'
	.db #0x4d	; 77	'M'
	.db #0x31	; 49	'1'
	.db #0x4a	; 74	'J'
	.db #0x2f	; 47
	.db #0x47	; 71	'G'
	.db #0x2d	; 45
	.db #0x45	; 69	'E'
	.db #0x2b	; 43
	.db #0x42	; 66	'B'
	.db #0x49	; 73	'I'
	.db #0x68	; 104	'h'
	.db #0x45	; 69	'E'
	.db #0x63	; 99	'c'
	.db #0x42	; 66	'B'
	.db #0x5e	; 94
	.db #0x3f	; 63
	.db #0x5a	; 90	'Z'
	.db #0x3c	; 60
	.db #0x56	; 86	'V'
	.db #0x39	; 57	'9'
	.db #0x52	; 82	'R'
	.db #0x37	; 55	'7'
	.db #0x4f	; 79	'O'
	.db #0x35	; 53	'5'
	.db #0x4c	; 76	'L'
	.db #0x33	; 51	'3'
	.db #0x49	; 73	'I'
	.db #0x31	; 49	'1'
	.db #0x46	; 70	'F'
	.db #0x2f	; 47
	.db #0x43	; 67	'C'
	.db #0x2d	; 45
	.db #0x41	; 65	'A'
	.db #0x4c	; 76	'L'
	.db #0x66	; 102	'f'
	.db #0x48	; 72	'H'
	.db #0x61	; 97	'a'
	.db #0x45	; 69	'E'
	.db #0x5c	; 92
	.db #0x41	; 65	'A'
	.db #0x58	; 88	'X'
	.db #0x3e	; 62
	.db #0x54	; 84	'T'
	.db #0x3c	; 60
	.db #0x51	; 81	'Q'
	.db #0x39	; 57	'9'
	.db #0x4d	; 77	'M'
	.db #0x37	; 55	'7'
	.db #0x4a	; 74	'J'
	.db #0x35	; 53	'5'
	.db #0x47	; 71	'G'
	.db #0x33	; 51	'3'
	.db #0x45	; 69	'E'
	.db #0x31	; 49	'1'
	.db #0x42	; 66	'B'
	.db #0x2f	; 47
	.db #0x40	; 64
	.db #0x4f	; 79	'O'
	.db #0x64	; 100	'd'
	.db #0x4b	; 75	'K'
	.db #0x5f	; 95
	.db #0x47	; 71	'G'
	.db #0x5a	; 90	'Z'
	.db #0x44	; 68	'D'
	.db #0x56	; 86	'V'
	.db #0x41	; 65	'A'
	.db #0x52	; 82	'R'
	.db #0x3e	; 62
	.db #0x4f	; 79	'O'
	.db #0x3c	; 60
	.db #0x4b	; 75	'K'
	.db #0x39	; 57	'9'
	.db #0x48	; 72	'H'
	.db #0x37	; 55	'7'
	.db #0x46	; 70	'F'
	.db #0x35	; 53	'5'
	.db #0x43	; 67	'C'
	.db #0x33	; 51	'3'
	.db #0x41	; 65	'A'
	.db #0x31	; 49	'1'
	.db #0x3e	; 62
	.db #0x52	; 82	'R'
	.db #0x61	; 97	'a'
	.db #0x4e	; 78	'N'
	.db #0x5d	; 93
	.db #0x4a	; 74	'J'
	.db #0x58	; 88	'X'
	.db #0x46	; 70	'F'
	.db #0x54	; 84	'T'
	.db #0x43	; 67	'C'
	.db #0x50	; 80	'P'
	.db #0x40	; 64
	.db #0x4d	; 77	'M'
	.db #0x3e	; 62
	.db #0x4a	; 74	'J'
	.db #0x3b	; 59
	.db #0x47	; 71	'G'
	.db #0x39	; 57	'9'
	.db #0x44	; 68	'D'
	.db #0x37	; 55	'7'
	.db #0x41	; 65	'A'
	.db #0x35	; 53	'5'
	.db #0x3f	; 63
	.db #0x33	; 51	'3'
	.db #0x3d	; 61
	.db #0x54	; 84	'T'
	.db #0x5f	; 95
	.db #0x50	; 80	'P'
	.db #0x5a	; 90	'Z'
	.db #0x4c	; 76	'L'
	.db #0x56	; 86	'V'
	.db #0x49	; 73	'I'
	.db #0x52	; 82	'R'
	.db #0x46	; 70	'F'
	.db #0x4e	; 78	'N'
	.db #0x43	; 67	'C'
	.db #0x4b	; 75	'K'
	.db #0x40	; 64
	.db #0x48	; 72	'H'
	.db #0x3d	; 61
	.db #0x45	; 69	'E'
	.db #0x3b	; 59
	.db #0x42	; 66	'B'
	.db #0x39	; 57	'9'
	.db #0x40	; 64
	.db #0x37	; 55	'7'
	.db #0x3d	; 61
	.db #0x35	; 53	'5'
	.db #0x3b	; 59
	.db #0x57	; 87	'W'
	.db #0x5c	; 92
	.db #0x53	; 83	'S'
	.db #0x58	; 88	'X'
	.db #0x4f	; 79	'O'
	.db #0x54	; 84	'T'
	.db #0x4b	; 75	'K'
	.db #0x50	; 80	'P'
	.db #0x48	; 72	'H'
	.db #0x4c	; 76	'L'
	.db #0x45	; 69	'E'
	.db #0x49	; 73	'I'
	.db #0x42	; 66	'B'
	.db #0x46	; 70	'F'
	.db #0x3f	; 63
	.db #0x43	; 67	'C'
	.db #0x3d	; 61
	.db #0x41	; 65	'A'
	.db #0x3b	; 59
	.db #0x3e	; 62
	.db #0x38	; 56	'8'
	.db #0x3c	; 60
	.db #0x36	; 54	'6'
	.db #0x3a	; 58
	.db #0x5a	; 90	'Z'
	.db #0x5a	; 90	'Z'
	.db #0x55	; 85	'U'
	.db #0x55	; 85	'U'
	.db #0x51	; 81	'Q'
	.db #0x51	; 81	'Q'
	.db #0x4e	; 78	'N'
	.db #0x4e	; 78	'N'
	.db #0x4a	; 74	'J'
	.db #0x4a	; 74	'J'
	.db #0x47	; 71	'G'
	.db #0x47	; 71	'G'
	.db #0x44	; 68	'D'
	.db #0x44	; 68	'D'
	.db #0x41	; 65	'A'
	.db #0x41	; 65	'A'
	.db #0x3f	; 63
	.db #0x3f	; 63
	.db #0x3c	; 60
	.db #0x3c	; 60
	.db #0x3a	; 58
	.db #0x3a	; 58
	.db #0x38	; 56	'8'
	.db #0x38	; 56	'8'
	.db #0x5c	; 92
	.db #0x57	; 87	'W'
	.db #0x58	; 88	'X'
	.db #0x53	; 83	'S'
	.db #0x54	; 84	'T'
	.db #0x4f	; 79	'O'
	.db #0x50	; 80	'P'
	.db #0x4b	; 75	'K'
	.db #0x4c	; 76	'L'
	.db #0x48	; 72	'H'
	.db #0x49	; 73	'I'
	.db #0x45	; 69	'E'
	.db #0x46	; 70	'F'
	.db #0x42	; 66	'B'
	.db #0x43	; 67	'C'
	.db #0x3f	; 63
	.db #0x41	; 65	'A'
	.db #0x3d	; 61
	.db #0x3e	; 62
	.db #0x3b	; 59
	.db #0x3c	; 60
	.db #0x38	; 56	'8'
	.db #0x3a	; 58
	.db #0x36	; 54	'6'
	.db #0x5f	; 95
	.db #0x54	; 84	'T'
	.db #0x5a	; 90	'Z'
	.db #0x50	; 80	'P'
	.db #0x56	; 86	'V'
	.db #0x4c	; 76	'L'
	.db #0x52	; 82	'R'
	.db #0x49	; 73	'I'
	.db #0x4e	; 78	'N'
	.db #0x46	; 70	'F'
	.db #0x4b	; 75	'K'
	.db #0x43	; 67	'C'
	.db #0x48	; 72	'H'
	.db #0x40	; 64
	.db #0x45	; 69	'E'
	.db #0x3d	; 61
	.db #0x42	; 66	'B'
	.db #0x3b	; 59
	.db #0x40	; 64
	.db #0x39	; 57	'9'
	.db #0x3d	; 61
	.db #0x37	; 55	'7'
	.db #0x3b	; 59
	.db #0x35	; 53	'5'
	.db #0x61	; 97	'a'
	.db #0x52	; 82	'R'
	.db #0x5d	; 93
	.db #0x4e	; 78	'N'
	.db #0x58	; 88	'X'
	.db #0x4a	; 74	'J'
	.db #0x54	; 84	'T'
	.db #0x46	; 70	'F'
	.db #0x50	; 80	'P'
	.db #0x43	; 67	'C'
	.db #0x4d	; 77	'M'
	.db #0x40	; 64
	.db #0x4a	; 74	'J'
	.db #0x3e	; 62
	.db #0x47	; 71	'G'
	.db #0x3b	; 59
	.db #0x44	; 68	'D'
	.db #0x39	; 57	'9'
	.db #0x41	; 65	'A'
	.db #0x37	; 55	'7'
	.db #0x3f	; 63
	.db #0x35	; 53	'5'
	.db #0x3d	; 61
	.db #0x33	; 51	'3'
	.db #0x64	; 100	'd'
	.db #0x4f	; 79	'O'
	.db #0x5f	; 95
	.db #0x4b	; 75	'K'
	.db #0x5a	; 90	'Z'
	.db #0x47	; 71	'G'
	.db #0x56	; 86	'V'
	.db #0x44	; 68	'D'
	.db #0x52	; 82	'R'
	.db #0x41	; 65	'A'
	.db #0x4f	; 79	'O'
	.db #0x3e	; 62
	.db #0x4b	; 75	'K'
	.db #0x3c	; 60
	.db #0x48	; 72	'H'
	.db #0x39	; 57	'9'
	.db #0x46	; 70	'F'
	.db #0x37	; 55	'7'
	.db #0x43	; 67	'C'
	.db #0x35	; 53	'5'
	.db #0x41	; 65	'A'
	.db #0x33	; 51	'3'
	.db #0x3e	; 62
	.db #0x31	; 49	'1'
	.db #0x66	; 102	'f'
	.db #0x4c	; 76	'L'
	.db #0x61	; 97	'a'
	.db #0x48	; 72	'H'
	.db #0x5c	; 92
	.db #0x45	; 69	'E'
	.db #0x58	; 88	'X'
	.db #0x41	; 65	'A'
	.db #0x54	; 84	'T'
	.db #0x3e	; 62
	.db #0x51	; 81	'Q'
	.db #0x3c	; 60
	.db #0x4d	; 77	'M'
	.db #0x39	; 57	'9'
	.db #0x4a	; 74	'J'
	.db #0x37	; 55	'7'
	.db #0x47	; 71	'G'
	.db #0x35	; 53	'5'
	.db #0x45	; 69	'E'
	.db #0x33	; 51	'3'
	.db #0x42	; 66	'B'
	.db #0x31	; 49	'1'
	.db #0x40	; 64
	.db #0x2f	; 47
	.db #0x68	; 104	'h'
	.db #0x49	; 73	'I'
	.db #0x63	; 99	'c'
	.db #0x45	; 69	'E'
	.db #0x5e	; 94
	.db #0x42	; 66	'B'
	.db #0x5a	; 90	'Z'
	.db #0x3f	; 63
	.db #0x56	; 86	'V'
	.db #0x3c	; 60
	.db #0x52	; 82	'R'
	.db #0x39	; 57	'9'
	.db #0x4f	; 79	'O'
	.db #0x37	; 55	'7'
	.db #0x4c	; 76	'L'
	.db #0x35	; 53	'5'
	.db #0x49	; 73	'I'
	.db #0x33	; 51	'3'
	.db #0x46	; 70	'F'
	.db #0x31	; 49	'1'
	.db #0x43	; 67	'C'
	.db #0x2f	; 47
	.db #0x41	; 65	'A'
	.db #0x2d	; 45
	.db #0x6a	; 106	'j'
	.db #0x46	; 70	'F'
	.db #0x65	; 101	'e'
	.db #0x42	; 66	'B'
	.db #0x60	; 96
	.db #0x3f	; 63
	.db #0x5c	; 92
	.db #0x3c	; 60
	.db #0x58	; 88	'X'
	.db #0x39	; 57	'9'
	.db #0x54	; 84	'T'
	.db #0x37	; 55	'7'
	.db #0x50	; 80	'P'
	.db #0x35	; 53	'5'
	.db #0x4d	; 77	'M'
	.db #0x33	; 51	'3'
	.db #0x4a	; 74	'J'
	.db #0x31	; 49	'1'
	.db #0x47	; 71	'G'
	.db #0x2f	; 47
	.db #0x45	; 69	'E'
	.db #0x2d	; 45
	.db #0x42	; 66	'B'
	.db #0x2b	; 43
	.db #0x6c	; 108	'l'
	.db #0x43	; 67	'C'
	.db #0x67	; 103	'g'
	.db #0x3f	; 63
	.db #0x62	; 98	'b'
	.db #0x3c	; 60
	.db #0x5d	; 93
	.db #0x39	; 57	'9'
	.db #0x59	; 89	'Y'
	.db #0x37	; 55	'7'
	.db #0x55	; 85	'U'
	.db #0x35	; 53	'5'
	.db #0x52	; 82	'R'
	.db #0x32	; 50	'2'
	.db #0x4f	; 79	'O'
	.db #0x30	; 48	'0'
	.db #0x4c	; 76	'L'
	.db #0x2e	; 46
	.db #0x49	; 73	'I'
	.db #0x2d	; 45
	.db #0x46	; 70	'F'
	.db #0x2b	; 43
	.db #0x44	; 68	'D'
	.db #0x2a	; 42
	.db #0x6e	; 110	'n'
	.db #0x3f	; 63
	.db #0x69	; 105	'i'
	.db #0x3c	; 60
	.db #0x64	; 100	'd'
	.db #0x39	; 57	'9'
	.db #0x5f	; 95
	.db #0x37	; 55	'7'
	.db #0x5b	; 91
	.db #0x34	; 52	'4'
	.db #0x57	; 87	'W'
	.db #0x32	; 50	'2'
	.db #0x53	; 83	'S'
	.db #0x30	; 48	'0'
	.db #0x50	; 80	'P'
	.db #0x2e	; 46
	.db #0x4d	; 77	'M'
	.db #0x2c	; 44
	.db #0x4a	; 74	'J'
	.db #0x2b	; 43
	.db #0x47	; 71	'G'
	.db #0x29	; 41
	.db #0x45	; 69	'E'
	.db #0x28	; 40
	.db #0x70	; 112	'p'
	.db #0x3c	; 60
	.db #0x6a	; 106	'j'
	.db #0x39	; 57	'9'
	.db #0x65	; 101	'e'
	.db #0x36	; 54	'6'
	.db #0x61	; 97	'a'
	.db #0x34	; 52	'4'
	.db #0x5c	; 92
	.db #0x32	; 50	'2'
	.db #0x58	; 88	'X'
	.db #0x2f	; 47
	.db #0x55	; 85	'U'
	.db #0x2d	; 45
	.db #0x51	; 81	'Q'
	.db #0x2c	; 44
	.db #0x4e	; 78	'N'
	.db #0x2a	; 42
	.db #0x4b	; 75	'K'
	.db #0x28	; 40
	.db #0x49	; 73	'I'
	.db #0x27	; 39
	.db #0x46	; 70	'F'
	.db #0x25	; 37
	.db #0x72	; 114	'r'
	.db #0x39	; 57	'9'
	.db #0x6c	; 108	'l'
	.db #0x36	; 54	'6'
	.db #0x67	; 103	'g'
	.db #0x33	; 51	'3'
	.db #0x62	; 98	'b'
	.db #0x31	; 49	'1'
	.db #0x5e	; 94
	.db #0x2f	; 47
	.db #0x5a	; 90	'Z'
	.db #0x2d	; 45
	.db #0x56	; 86	'V'
	.db #0x2b	; 43
	.db #0x53	; 83	'S'
	.db #0x29	; 41
	.db #0x4f	; 79	'O'
	.db #0x28	; 40
	.db #0x4c	; 76	'L'
	.db #0x26	; 38
	.db #0x4a	; 74	'J'
	.db #0x25	; 37
	.db #0x47	; 71	'G'
	.db #0x23	; 35
	.db #0x73	; 115	's'
	.db #0x35	; 53	'5'
	.db #0x6e	; 110	'n'
	.db #0x33	; 51	'3'
	.db #0x68	; 104	'h'
	.db #0x30	; 48	'0'
	.db #0x64	; 100	'd'
	.db #0x2e	; 46
	.db #0x5f	; 95
	.db #0x2c	; 44
	.db #0x5b	; 91
	.db #0x2a	; 42
	.db #0x57	; 87	'W'
	.db #0x28	; 40
	.db #0x54	; 84	'T'
	.db #0x27	; 39
	.db #0x51	; 81	'Q'
	.db #0x25	; 37
	.db #0x4e	; 78	'N'
	.db #0x24	; 36
	.db #0x4b	; 75	'K'
	.db #0x23	; 35
	.db #0x48	; 72	'H'
	.db #0x21	; 33
	.db #0x75	; 117	'u'
	.db #0x32	; 50	'2'
	.db #0x6f	; 111	'o'
	.db #0x30	; 48	'0'
	.db #0x6a	; 106	'j'
	.db #0x2d	; 45
	.db #0x65	; 101	'e'
	.db #0x2b	; 43
	.db #0x60	; 96
	.db #0x29	; 41
	.db #0x5c	; 92
	.db #0x28	; 40
	.db #0x58	; 88	'X'
	.db #0x26	; 38
	.db #0x55	; 85	'U'
	.db #0x24	; 36
	.db #0x52	; 82	'R'
	.db #0x23	; 35
	.db #0x4f	; 79	'O'
	.db #0x22	; 34
	.db #0x4c	; 76	'L'
	.db #0x20	; 32
	.db #0x49	; 73	'I'
	.db #0x1f	; 31
	.db #0x76	; 118	'v'
	.db #0x2f	; 47
	.db #0x70	; 112	'p'
	.db #0x2c	; 44
	.db #0x6b	; 107	'k'
	.db #0x2a	; 42
	.db #0x66	; 102	'f'
	.db #0x28	; 40
	.db #0x62	; 98	'b'
	.db #0x26	; 38
	.db #0x5d	; 93
	.db #0x25	; 37
	.db #0x5a	; 90	'Z'
	.db #0x23	; 35
	.db #0x56	; 86	'V'
	.db #0x22	; 34
	.db #0x53	; 83	'S'
	.db #0x21	; 33
	.db #0x50	; 80	'P'
	.db #0x1f	; 31
	.db #0x4d	; 77	'M'
	.db #0x1e	; 30
	.db #0x4a	; 74	'J'
	.db #0x1d	; 29
	.db #0x78	; 120	'x'
	.db #0x2b	; 43
	.db #0x72	; 114	'r'
	.db #0x29	; 41
	.db #0x6c	; 108	'l'
	.db #0x27	; 39
	.db #0x67	; 103	'g'
	.db #0x25	; 37
	.db #0x63	; 99	'c'
	.db #0x24	; 36
	.db #0x5e	; 94
	.db #0x22	; 34
	.db #0x5b	; 91
	.db #0x21	; 33
	.db #0x57	; 87	'W'
	.db #0x1f	; 31
	.db #0x54	; 84	'T'
	.db #0x1e	; 30
	.db #0x50	; 80	'P'
	.db #0x1d	; 29
	.db #0x4d	; 77	'M'
	.db #0x1c	; 28
	.db #0x4b	; 75	'K'
	.db #0x1b	; 27
	.db #0x79	; 121	'y'
	.db #0x28	; 40
	.db #0x73	; 115	's'
	.db #0x26	; 38
	.db #0x6d	; 109	'm'
	.db #0x24	; 36
	.db #0x68	; 104	'h'
	.db #0x22	; 34
	.db #0x64	; 100	'd'
	.db #0x21	; 33
	.db #0x5f	; 95
	.db #0x1f	; 31
	.db #0x5b	; 91
	.db #0x1e	; 30
	.db #0x58	; 88	'X'
	.db #0x1d	; 29
	.db #0x54	; 84	'T'
	.db #0x1c	; 28
	.db #0x51	; 81	'Q'
	.db #0x1b	; 27
	.db #0x4e	; 78	'N'
	.db #0x1a	; 26
	.db #0x4b	; 75	'K'
	.db #0x19	; 25
	.db #0x7a	; 122	'z'
	.db #0x24	; 36
	.db #0x74	; 116	't'
	.db #0x22	; 34
	.db #0x6e	; 110	'n'
	.db #0x21	; 33
	.db #0x69	; 105	'i'
	.db #0x1f	; 31
	.db #0x65	; 101	'e'
	.db #0x1e	; 30
	.db #0x60	; 96
	.db #0x1c	; 28
	.db #0x5c	; 92
	.db #0x1b	; 27
	.db #0x59	; 89	'Y'
	.db #0x1a	; 26
	.db #0x55	; 85	'U'
	.db #0x19	; 25
	.db #0x52	; 82	'R'
	.db #0x18	; 24
	.db #0x4f	; 79	'O'
	.db #0x17	; 23
	.db #0x4c	; 76	'L'
	.db #0x16	; 22
	.db #0x7b	; 123
	.db #0x21	; 33
	.db #0x75	; 117	'u'
	.db #0x1f	; 31
	.db #0x6f	; 111	'o'
	.db #0x1d	; 29
	.db #0x6a	; 106	'j'
	.db #0x1c	; 28
	.db #0x65	; 101	'e'
	.db #0x1b	; 27
	.db #0x61	; 97	'a'
	.db #0x1a	; 26
	.db #0x5d	; 93
	.db #0x19	; 25
	.db #0x59	; 89	'Y'
	.db #0x18	; 24
	.db #0x56	; 86	'V'
	.db #0x17	; 23
	.db #0x53	; 83	'S'
	.db #0x16	; 22
	.db #0x50	; 80	'P'
	.db #0x15	; 21
	.db #0x4d	; 77	'M'
	.db #0x14	; 20
	.db #0x7c	; 124
	.db #0x1d	; 29
	.db #0x76	; 118	'v'
	.db #0x1b	; 27
	.db #0x70	; 112	'p'
	.db #0x1a	; 26
	.db #0x6b	; 107	'k'
	.db #0x19	; 25
	.db #0x66	; 102	'f'
	.db #0x18	; 24
	.db #0x62	; 98	'b'
	.db #0x17	; 23
	.db #0x5e	; 94
	.db #0x16	; 22
	.db #0x5a	; 90	'Z'
	.db #0x15	; 21
	.db #0x57	; 87	'W'
	.db #0x14	; 20
	.db #0x53	; 83	'S'
	.db #0x13	; 19
	.db #0x50	; 80	'P'
	.db #0x13	; 19
	.db #0x4d	; 77	'M'
	.db #0x12	; 18
	.db #0x7d	; 125
	.db #0x19	; 25
	.db #0x76	; 118	'v'
	.db #0x18	; 24
	.db #0x71	; 113	'q'
	.db #0x17	; 23
	.db #0x6c	; 108	'l'
	.db #0x16	; 22
	.db #0x67	; 103	'g'
	.db #0x15	; 21
	.db #0x62	; 98	'b'
	.db #0x14	; 20
	.db #0x5e	; 94
	.db #0x13	; 19
	.db #0x5b	; 91
	.db #0x12	; 18
	.db #0x57	; 87	'W'
	.db #0x12	; 18
	.db #0x54	; 84	'T'
	.db #0x11	; 17
	.db #0x51	; 81	'Q'
	.db #0x10	; 16
	.db #0x4e	; 78	'N'
	.db #0x10	; 16
	.db #0x7d	; 125
	.db #0x16	; 22
	.db #0x77	; 119	'w'
	.db #0x15	; 21
	.db #0x71	; 113	'q'
	.db #0x14	; 20
	.db #0x6c	; 108	'l'
	.db #0x13	; 19
	.db #0x67	; 103	'g'
	.db #0x12	; 18
	.db #0x63	; 99	'c'
	.db #0x11	; 17
	.db #0x5f	; 95
	.db #0x10	; 16
	.db #0x5b	; 91
	.db #0x10	; 16
	.db #0x58	; 88	'X'
	.db #0x0f	; 15
	.db #0x54	; 84	'T'
	.db #0x0e	; 14
	.db #0x51	; 81	'Q'
	.db #0x0e	; 14
	.db #0x4e	; 78	'N'
	.db #0x0d	; 13
	.db #0x7e	; 126
	.db #0x12	; 18
	.db #0x78	; 120	'x'
	.db #0x11	; 17
	.db #0x72	; 114	'r'
	.db #0x10	; 16
	.db #0x6d	; 109	'm'
	.db #0x0f	; 15
	.db #0x68	; 104	'h'
	.db #0x0f	; 15
	.db #0x63	; 99	'c'
	.db #0x0e	; 14
	.db #0x5f	; 95
	.db #0x0e	; 14
	.db #0x5c	; 92
	.db #0x0d	; 13
	.db #0x58	; 88	'X'
	.db #0x0c	; 12
	.db #0x55	; 85	'U'
	.db #0x0c	; 12
	.db #0x52	; 82	'R'
	.db #0x0c	; 12
	.db #0x4f	; 79	'O'
	.db #0x0b	; 11
	.db #0x7e	; 126
	.db #0x0e	; 14
	.db #0x78	; 120	'x'
	.db #0x0e	; 14
	.db #0x72	; 114	'r'
	.db #0x0d	; 13
	.db #0x6d	; 109	'm'
	.db #0x0c	; 12
	.db #0x68	; 104	'h'
	.db #0x0c	; 12
	.db #0x64	; 100	'd'
	.db #0x0b	; 11
	.db #0x60	; 96
	.db #0x0b	; 11
	.db #0x5c	; 92
	.db #0x0a	; 10
	.db #0x58	; 88	'X'
	.db #0x0a	; 10
	.db #0x55	; 85	'U'
	.db #0x09	; 9
	.db #0x52	; 82	'R'
	.db #0x09	; 9
	.db #0x4f	; 79	'O'
	.db #0x09	; 9
	.db #0x7f	; 127
	.db #0x0b	; 11
	.db #0x78	; 120	'x'
	.db #0x0a	; 10
	.db #0x73	; 115	's'
	.db #0x0a	; 10
	.db #0x6d	; 109	'm'
	.db #0x09	; 9
	.db #0x69	; 105	'i'
	.db #0x09	; 9
	.db #0x64	; 100	'd'
	.db #0x08	; 8
	.db #0x60	; 96
	.db #0x08	; 8
	.db #0x5c	; 92
	.db #0x08	; 8
	.db #0x59	; 89	'Y'
	.db #0x07	; 7
	.db #0x55	; 85	'U'
	.db #0x07	; 7
	.db #0x52	; 82	'R'
	.db #0x07	; 7
	.db #0x4f	; 79	'O'
	.db #0x06	; 6
	.db #0x7f	; 127
	.db #0x07	; 7
	.db #0x79	; 121	'y'
	.db #0x07	; 7
	.db #0x73	; 115	's'
	.db #0x06	; 6
	.db #0x6e	; 110	'n'
	.db #0x06	; 6
	.db #0x69	; 105	'i'
	.db #0x06	; 6
	.db #0x64	; 100	'd'
	.db #0x05	; 5
	.db #0x60	; 96
	.db #0x05	; 5
	.db #0x5c	; 92
	.db #0x05	; 5
	.db #0x59	; 89	'Y'
	.db #0x05	; 5
	.db #0x55	; 85	'U'
	.db #0x05	; 5
	.db #0x52	; 82	'R'
	.db #0x04	; 4
	.db #0x4f	; 79	'O'
	.db #0x04	; 4
	.db #0x7f	; 127
	.db #0x03	; 3
	.db #0x79	; 121	'y'
	.db #0x03	; 3
	.db #0x73	; 115	's'
	.db #0x03	; 3
	.db #0x6e	; 110	'n'
	.db #0x03	; 3
	.db #0x69	; 105	'i'
	.db #0x03	; 3
	.db #0x64	; 100	'd'
	.db #0x02	; 2
	.db #0x60	; 96
	.db #0x02	; 2
	.db #0x5c	; 92
	.db #0x02	; 2
	.db #0x59	; 89	'Y'
	.db #0x02	; 2
	.db #0x56	; 86	'V'
	.db #0x02	; 2
	.db #0x52	; 82	'R'
	.db #0x02	; 2
	.db #0x4f	; 79	'O'
	.db #0x02	; 2
;code.c:160: bool getScreenPixel(byte x, byte y) {
;	---------------------------------
; Function getScreenPixel
; ---------------------------------
_getScreenPixel::
	call	___sdcc_enter_ix
	push	af
	dec	sp
;code.c:162: x /= 2;
	ld	e, 4 (ix)
	ld	d, #0x00
	ld	c, e
	ld	b, d
	bit	7, d
	jr	Z, 00130$
	ld	c, e
	ld	b, d
	inc	bc
00130$:
	sra	b
	rr	c
;code.c:165: if (y >= height) return false;
	ld	a, 5 (ix)
	sub	a, #0x40
	jr	C, 00102$
	ld	l, #0x00
	jp	00128$
00102$:
;code.c:166: if (x >= width) return false;
	ld	a, c
	sub	a, #0x30
	jr	C, 00104$
	ld	l, #0x00
	jp	00128$
00104$:
;code.c:168: if (y < horizon) return false;
	ld	a, 5 (ix)
	sub	a, #0x20
	jr	NC, 00106$
	ld	l, #0x00
	jp	00128$
00106$:
;code.c:172: if ((y - horizon) < sixteenBitHeight) {
	ld	a, 5 (ix)
	ld	b, #0x00
	add	a, #0xe0
	ld	e, a
	ld	a, b
	adc	a, #0xff
	ld	d, a
;code.c:173: unsigned short index = x + o;
	ld	b, #0x00
	ld	a, (#_o + 0)
	ld	l, a
	ld	h, #0x00
;code.c:180: angles16[element][y - horizon][1]
	ld	a, 5 (ix)
	ld	-3 (ix), a
;code.c:173: unsigned short index = x + o;
	add	hl, bc
;code.c:172: if ((y - horizon) < sixteenBitHeight) {
	ld	a, e
	sub	a, #0x14
	ld	a, d
	rla
	ccf
	rra
	sbc	a, #0x80
	jp	NC, 00126$
;code.c:173: unsigned short index = x + o;
;code.c:174: index = index % (angleWidth * 4);
	ld	de, #0x00d8
	push	de
	push	hl
	call	__moduint
	pop	af
	pop	af
	ld	c, l
	ld	b, h
;code.c:175: unsigned short element = index % angleWidth;
	ld	-2 (ix), c
	ld	-1 (ix), b
	push	bc
	ld	hl, #0x0036
	push	hl
	ld	l, -2 (ix)
	ld	h, -1 (ix)
	push	hl
	call	__moduint
	pop	af
	pop	af
	pop	bc
;code.c:180: angles16[element][y - horizon][1]
	ld	e, l
	ld	d, h
	add	hl, hl
	add	hl, hl
	add	hl, de
	add	hl, hl
	add	hl, hl
	add	hl, hl
	add	hl, hl
	ld	a, -3 (ix)
	add	a, #0xe0
	add	a, a
	add	a, a
	ld	e, a
;code.c:177: if (index < angleWidth) {
	ld	a, -2 (ix)
	sub	a, #0x36
	ld	a, -1 (ix)
	sbc	a, #0x00
	jr	NC, 00114$
;code.c:180: angles16[element][y - horizon][1]
	ld	bc, #_angles16+0
	add	hl, bc
	ld	a, l
	add	a, e
	ld	c, a
	ld	a, h
	adc	a, #0x00
	ld	b, a
	ld	l, c
	ld	h, b
	inc	hl
	inc	hl
	ld	e, (hl)
	inc	hl
	ld	d, (hl)
;code.c:179: angles16[element][y - horizon][0],
	ld	l, c
	ld	h, b
	ld	c, (hl)
	inc	hl
	ld	b, (hl)
	push	de
	push	bc
	call	_samplePixel
	pop	af
	pop	af
	jp	00128$
00114$:
;code.c:182: } else if (index < angleWidth * 2) {
	ld	a, c
	sub	a, #0x6c
	ld	a, b
	sbc	a, #0x00
	jr	NC, 00111$
;code.c:186: -angles16[element][y - horizon][0]
	ld	bc, #_angles16+0
	add	hl, bc
	ld	d, #0x00
	add	hl, de
	ld	c, (hl)
	inc	hl
	ld	b, (hl)
	dec	hl
	xor	a, a
	sub	a, c
	ld	c, a
	ld	a, #0x00
	sbc	a, b
	ld	b, a
;code.c:185: angles16[element][y - horizon][1],
	inc	hl
	inc	hl
	ld	e, (hl)
	inc	hl
	ld	d, (hl)
	push	bc
	push	de
	call	_samplePixel
	pop	af
	pop	af
	jp	00128$
00111$:
;code.c:188: } else if (index < angleWidth * 3) {
	ld	a, c
	sub	a, #0xa2
	ld	a, b
	sbc	a, #0x00
	jr	NC, 00108$
;code.c:192: -angles16[element][y - horizon][1]
	ld	bc, #_angles16+0
	add	hl, bc
	ld	a, l
	add	a, e
	ld	c, a
	ld	a, h
	adc	a, #0x00
	ld	b, a
	ld	l, c
	ld	h, b
	inc	hl
	inc	hl
	ld	e, (hl)
	inc	hl
	ld	d, (hl)
	ld	hl, #0x0000
	cp	a, a
	sbc	hl, de
	ex	de, hl
;code.c:191: -angles16[element][y - horizon][0],
	ld	l, c
	ld	h, b
	ld	c, (hl)
	inc	hl
	ld	b, (hl)
	ld	hl, #0x0000
	cp	a, a
	sbc	hl, bc
	push	de
	push	hl
	call	_samplePixel
	pop	af
	pop	af
	jp	00128$
00108$:
;code.c:198: angles16[element][y - horizon][0]
	ld	bc, #_angles16+0
	add	hl, bc
	ld	d, #0x00
	add	hl, de
	ld	c, (hl)
	inc	hl
	ld	b, (hl)
;code.c:197: -angles16[element][y - horizon][1],
	inc	hl
	ld	e, (hl)
	inc	hl
	ld	d, (hl)
	ld	hl, #0x0000
	cp	a, a
	sbc	hl, de
	push	bc
	push	hl
	call	_samplePixel
	pop	af
	pop	af
	jp	00128$
00126$:
;code.c:205: unsigned short index = x + o;
;code.c:206: index = index % (angleWidth * 4);
	ld	de, #0x00d8
	push	de
	push	hl
	call	__moduint
	pop	af
	pop	af
	ld	c, l
	ld	b, h
;code.c:207: unsigned short element = index % angleWidth;
	ld	-2 (ix), c
	ld	-1 (ix), b
	push	bc
	ld	hl, #0x0036
	push	hl
	ld	l, -2 (ix)
	ld	h, -1 (ix)
	push	hl
	call	__moduint
	pop	af
	pop	af
	pop	bc
;code.c:212: angles8[element][y - horizon - sixteenBitHeight][1]
	ld	e, l
	ld	d, h
	add	hl, hl
	add	hl, de
	add	hl, hl
	add	hl, hl
	add	hl, hl
	ld	a, -3 (ix)
	add	a, #0xcc
	add	a, a
	ld	e, a
;code.c:209: if (index < angleWidth) {
	ld	a, -2 (ix)
	sub	a, #0x36
	ld	a, -1 (ix)
	sbc	a, #0x00
	jr	NC, 00123$
;code.c:212: angles8[element][y - horizon - sixteenBitHeight][1]
	ld	bc, #_angles8+0
	add	hl, bc
	ld	a, l
	add	a, e
	ld	c, a
	ld	a, h
	adc	a, #0x00
	ld	b, a
	ld	l, c
	ld	h, b
	inc	hl
	ld	e, (hl)
	ld	d, #0x00
;code.c:211: angles8[element][y - horizon - sixteenBitHeight][0],
	ld	a, (bc)
	ld	c, a
	ld	b, #0x00
	push	de
	push	bc
	call	_samplePixel
	pop	af
	pop	af
	jr	00128$
00123$:
;code.c:214: } else if (index < angleWidth * 2) {
	ld	a, c
	sub	a, #0x6c
	ld	a, b
	sbc	a, #0x00
	jr	NC, 00120$
;code.c:218: -angles8[element][y - horizon - sixteenBitHeight][0]
	ld	bc, #_angles8+0
	add	hl, bc
	ld	d, #0x00
	add	hl, de
	ld	a, (hl)
	ld	c, #0x00
	neg
	ld	e, a
	ld	a, #0x00
	sbc	a, c
	ld	d, a
;code.c:217: angles8[element][y - horizon - sixteenBitHeight][1],
	inc	hl
	ld	c, (hl)
	ld	b, #0x00
	push	de
	push	bc
	call	_samplePixel
	pop	af
	pop	af
	jr	00128$
00120$:
;code.c:220: } else if (index < angleWidth * 3) {
	ld	a, c
	sub	a, #0xa2
	ld	a, b
	sbc	a, #0x00
	jr	NC, 00117$
;code.c:224: -angles8[element][y - horizon - sixteenBitHeight][1]
	ld	bc, #_angles8+0
	add	hl, bc
	ld	a, l
	add	a, e
	ld	c, a
	ld	a, h
	adc	a, #0x00
	ld	b, a
	ld	l, c
	ld	h, b
	inc	hl
	ld	e, (hl)
	ld	d, #0x00
	ld	hl, #0x0000
	cp	a, a
	sbc	hl, de
	ex	de, hl
;code.c:223: -angles8[element][y - horizon - sixteenBitHeight][0],
	ld	a, (bc)
	ld	c, a
	ld	b, #0x00
	ld	l, h
	cp	a, a
	sbc	hl, bc
	push	de
	push	hl
	call	_samplePixel
	pop	af
	pop	af
	jr	00128$
00117$:
;code.c:230: angles8[element][y - horizon - sixteenBitHeight][0]
	ld	bc, #_angles8+0
	add	hl, bc
	ld	d, #0x00
	add	hl, de
	ld	c, (hl)
	ld	b, #0x00
;code.c:229: -angles8[element][y - horizon - sixteenBitHeight][1],
	inc	hl
	ld	e, (hl)
	ld	d, #0x00
	ld	hl, #0x0000
	cp	a, a
	sbc	hl, de
	push	bc
	push	hl
	call	_samplePixel
	pop	af
	pop	af
00128$:
;code.c:234: }
	ld	sp, ix
	pop	ix
	ret
;code.c:236: byte getScreenByte(byte x, byte y) {
;	---------------------------------
; Function getScreenByte
; ---------------------------------
_getScreenByte::
;code.c:237: byte result = 0;
;code.c:238: for (byte ox = 0; ox < 8; ox++) {
	ld	de, #0x0000
00105$:
	ld	a, d
	sub	a, #0x08
	jr	NC, 00103$
;code.c:239: if (getScreenPixel(x + ox, y)) {
	ld	iy, #2
	add	iy, sp
	ld	a, 0 (iy)
	add	a, d
	push	de
	ld	h, 1 (iy)
	push	hl
	inc	sp
	push	af
	inc	sp
	call	_getScreenPixel
	pop	af
	ld	a, l
	pop	de
	or	a, a
	jr	Z, 00106$
;code.c:240: result = result | (1 << (7 - ox));
	ld	c, d
	ld	a, #0x07
	sub	a, c
	ld	b, a
	ld	a, #0x01
	inc	b
	jr	00126$
00125$:
	add	a, a
00126$:
	djnz	00125$
	or	a, e
	ld	e, a
00106$:
;code.c:238: for (byte ox = 0; ox < 8; ox++) {
	inc	d
	jr	00105$
00103$:
;code.c:243: return result;
	ld	l, e
;code.c:244: }
	ret
;code.c:246: int main()
;	---------------------------------
; Function main
; ---------------------------------
_main::
	call	___sdcc_enter_ix
	ld	hl, #-6148
	add	hl, sp
	ld	sp, hl
;code.c:251: while (true) {
	ld	hl, #0
	add	hl, sp
	ld	-4 (ix), l
	ld	-3 (ix), h
00109$:
;code.c:259: byte *bytePointer = screenArray;
	ld	a, -4 (ix)
	ld	-2 (ix), a
	ld	a, -3 (ix)
	ld	-1 (ix), a
;code.c:261: for (byte y = 0; y < /*64 */ height; y++) {
	ld	c, #0x00
00115$:
	ld	a, c
	sub	a, #0x40
	jr	NC, 00102$
;code.c:262: for (byte x = 0; x < 96; x += 8) {
	ld	e, #0x00
00112$:
	ld	a, e
	sub	a, #0x60
	jr	NC, 00126$
;code.c:264: *bytePointer = getScreenByte(x, y);
	push	bc
	push	de
	ld	d, c
	push	de
	call	_getScreenByte
	pop	af
	ld	a, l
	pop	de
	pop	bc
	ld	l, -2 (ix)
	ld	h, -1 (ix)
	ld	(hl), a
;code.c:265: bytePointer++;
	inc	-2 (ix)
	jr	NZ, 00148$
	inc	-1 (ix)
00148$:
;code.c:262: for (byte x = 0; x < 96; x += 8) {
	ld	a, e
	add	a, #0x08
	ld	e, a
	jr	00112$
00126$:
;code.c:261: for (byte y = 0; y < /*64 */ height; y++) {
	inc	c
	jr	00115$
00102$:
;code.c:277: o++;
	ld	hl, #_o
	inc	(hl)
;code.c:281: return 0;
;code.c:282: }
	jr	00109$
	.area _CODE
	.area _INITIALIZER
__xinit__o:
	.db #0x00	; 0
	.area _CABS (ABS)
