;--------------------------------------------------------
; File Created by SDCC : free open source ANSI-C Compiler
; Version 4.0.7 #12036 (MINGW64)
;--------------------------------------------------------
; Processed by Z88DK
;--------------------------------------------------------
	
	EXTERN __divschar
	EXTERN __divschar_callee
	EXTERN __divsint
	EXTERN __divsint_callee
	EXTERN __divslong
	EXTERN __divslong_callee
	EXTERN __divslonglong
	EXTERN __divslonglong_callee
	EXTERN __divsuchar
	EXTERN __divsuchar_callee
	EXTERN __divuchar
	EXTERN __divuchar_callee
	EXTERN __divuint
	EXTERN __divuint_callee
	EXTERN __divulong
	EXTERN __divulong_callee
	EXTERN __divulonglong
	EXTERN __divulonglong_callee
	EXTERN __divuschar
	EXTERN __divuschar_callee
	EXTERN __modschar
	EXTERN __modschar_callee
	EXTERN __modsint
	EXTERN __modsint_callee
	EXTERN __modslong
	EXTERN __modslong_callee
	EXTERN __modslonglong
	EXTERN __modslonglong_callee
	EXTERN __modsuchar
	EXTERN __modsuchar_callee
	EXTERN __moduchar
	EXTERN __moduchar_callee
	EXTERN __moduint
	EXTERN __moduint_callee
	EXTERN __modulong
	EXTERN __modulong_callee
	EXTERN __modulonglong
	EXTERN __modulonglong_callee
	EXTERN __moduschar
	EXTERN __moduschar_callee
	EXTERN __mulint
	EXTERN __mulint_callee
	EXTERN __mullong
	EXTERN __mullong_callee
	EXTERN __mullonglong
	EXTERN __mullonglong_callee
	EXTERN __mulschar
	EXTERN __mulschar_callee
	EXTERN __mulsuchar
	EXTERN __mulsuchar_callee
	EXTERN __muluchar
	EXTERN __muluchar_callee
	EXTERN __muluschar
	EXTERN __muluschar_callee
	EXTERN __rlslonglong
	EXTERN __rlslonglong_callee
	EXTERN __rlulonglong
	EXTERN __rlulonglong_callee
	EXTERN __rrslonglong
	EXTERN __rrslonglong_callee
	EXTERN __rrulonglong
	EXTERN __rrulonglong_callee
	EXTERN ___sdcc_call_hl
	EXTERN ___sdcc_call_iy
	EXTERN ___sdcc_enter_ix
	EXTERN banked_call
	EXTERN _banked_ret
	EXTERN ___fs2schar
	EXTERN ___fs2schar_callee
	EXTERN ___fs2sint
	EXTERN ___fs2sint_callee
	EXTERN ___fs2slong
	EXTERN ___fs2slong_callee
	EXTERN ___fs2slonglong
	EXTERN ___fs2slonglong_callee
	EXTERN ___fs2uchar
	EXTERN ___fs2uchar_callee
	EXTERN ___fs2uint
	EXTERN ___fs2uint_callee
	EXTERN ___fs2ulong
	EXTERN ___fs2ulong_callee
	EXTERN ___fs2ulonglong
	EXTERN ___fs2ulonglong_callee
	EXTERN ___fsadd
	EXTERN ___fsadd_callee
	EXTERN ___fsdiv
	EXTERN ___fsdiv_callee
	EXTERN ___fseq
	EXTERN ___fseq_callee
	EXTERN ___fsgt
	EXTERN ___fsgt_callee
	EXTERN ___fslt
	EXTERN ___fslt_callee
	EXTERN ___fsmul
	EXTERN ___fsmul_callee
	EXTERN ___fsneq
	EXTERN ___fsneq_callee
	EXTERN ___fssub
	EXTERN ___fssub_callee
	EXTERN ___schar2fs
	EXTERN ___schar2fs_callee
	EXTERN ___sint2fs
	EXTERN ___sint2fs_callee
	EXTERN ___slong2fs
	EXTERN ___slong2fs_callee
	EXTERN ___slonglong2fs
	EXTERN ___slonglong2fs_callee
	EXTERN ___uchar2fs
	EXTERN ___uchar2fs_callee
	EXTERN ___uint2fs
	EXTERN ___uint2fs_callee
	EXTERN ___ulong2fs
	EXTERN ___ulong2fs_callee
	EXTERN ___ulonglong2fs
	EXTERN ___ulonglong2fs_callee
	EXTERN ____sdcc_2_copy_src_mhl_dst_deix
	EXTERN ____sdcc_2_copy_src_mhl_dst_bcix
	EXTERN ____sdcc_4_copy_src_mhl_dst_deix
	EXTERN ____sdcc_4_copy_src_mhl_dst_bcix
	EXTERN ____sdcc_4_copy_src_mhl_dst_mbc
	EXTERN ____sdcc_4_ldi_nosave_bc
	EXTERN ____sdcc_4_ldi_save_bc
	EXTERN ____sdcc_4_push_hlix
	EXTERN ____sdcc_4_push_mhl
	EXTERN ____sdcc_lib_setmem_hl
	EXTERN ____sdcc_ll_add_de_bc_hl
	EXTERN ____sdcc_ll_add_de_bc_hlix
	EXTERN ____sdcc_ll_add_de_hlix_bc
	EXTERN ____sdcc_ll_add_de_hlix_bcix
	EXTERN ____sdcc_ll_add_deix_bc_hl
	EXTERN ____sdcc_ll_add_deix_hlix
	EXTERN ____sdcc_ll_add_hlix_bc_deix
	EXTERN ____sdcc_ll_add_hlix_deix_bc
	EXTERN ____sdcc_ll_add_hlix_deix_bcix
	EXTERN ____sdcc_ll_asr_hlix_a
	EXTERN ____sdcc_ll_asr_mbc_a
	EXTERN ____sdcc_ll_copy_src_de_dst_hlix
	EXTERN ____sdcc_ll_copy_src_de_dst_hlsp
	EXTERN ____sdcc_ll_copy_src_deix_dst_hl
	EXTERN ____sdcc_ll_copy_src_deix_dst_hlix
	EXTERN ____sdcc_ll_copy_src_deixm_dst_hlsp
	EXTERN ____sdcc_ll_copy_src_desp_dst_hlsp
	EXTERN ____sdcc_ll_copy_src_hl_dst_de
	EXTERN ____sdcc_ll_copy_src_hlsp_dst_de
	EXTERN ____sdcc_ll_copy_src_hlsp_dst_deixm
	EXTERN ____sdcc_ll_lsl_hlix_a
	EXTERN ____sdcc_ll_lsl_mbc_a
	EXTERN ____sdcc_ll_lsr_hlix_a
	EXTERN ____sdcc_ll_lsr_mbc_a
	EXTERN ____sdcc_ll_push_hlix
	EXTERN ____sdcc_ll_push_mhl
	EXTERN ____sdcc_ll_sub_de_bc_hl
	EXTERN ____sdcc_ll_sub_de_bc_hlix
	EXTERN ____sdcc_ll_sub_de_hlix_bc
	EXTERN ____sdcc_ll_sub_de_hlix_bcix
	EXTERN ____sdcc_ll_sub_deix_bc_hl
	EXTERN ____sdcc_ll_sub_deix_hlix
	EXTERN ____sdcc_ll_sub_hlix_bc_deix
	EXTERN ____sdcc_ll_sub_hlix_deix_bc
	EXTERN ____sdcc_ll_sub_hlix_deix_bcix
	EXTERN ____sdcc_load_debc_deix
	EXTERN ____sdcc_load_dehl_deix
	EXTERN ____sdcc_load_debc_mhl
	EXTERN ____sdcc_load_hlde_mhl
	EXTERN ____sdcc_store_dehl_bcix
	EXTERN ____sdcc_store_debc_hlix
	EXTERN ____sdcc_store_debc_mhl
	EXTERN ____sdcc_cpu_pop_ei
	EXTERN ____sdcc_cpu_pop_ei_jp
	EXTERN ____sdcc_cpu_push_di
	EXTERN ____sdcc_outi
	EXTERN ____sdcc_outi_128
	EXTERN ____sdcc_outi_256
	EXTERN ____sdcc_ldi
	EXTERN ____sdcc_ldi_128
	EXTERN ____sdcc_ldi_256
	EXTERN ____sdcc_4_copy_srcd_hlix_dst_deix
	EXTERN ____sdcc_4_and_src_mbc_mhl_dst_deix
	EXTERN ____sdcc_4_or_src_mbc_mhl_dst_deix
	EXTERN ____sdcc_4_xor_src_mbc_mhl_dst_deix
	EXTERN ____sdcc_4_or_src_dehl_dst_bcix
	EXTERN ____sdcc_4_xor_src_dehl_dst_bcix
	EXTERN ____sdcc_4_and_src_dehl_dst_bcix
	EXTERN ____sdcc_4_xor_src_mbc_mhl_dst_debc
	EXTERN ____sdcc_4_or_src_mbc_mhl_dst_debc
	EXTERN ____sdcc_4_and_src_mbc_mhl_dst_debc
	EXTERN ____sdcc_4_cpl_src_mhl_dst_debc
	EXTERN ____sdcc_4_xor_src_debc_mhl_dst_debc
	EXTERN ____sdcc_4_or_src_debc_mhl_dst_debc
	EXTERN ____sdcc_4_and_src_debc_mhl_dst_debc
	EXTERN ____sdcc_4_and_src_debc_hlix_dst_debc
	EXTERN ____sdcc_4_or_src_debc_hlix_dst_debc
	EXTERN ____sdcc_4_xor_src_debc_hlix_dst_debc

;--------------------------------------------------------
; Public variables in this module
;--------------------------------------------------------
	GLOBAL _main
	GLOBAL _getScreenByte
	GLOBAL _getScreenPixel
	GLOBAL _samplePixel
	GLOBAL _o
	GLOBAL _angles8
	GLOBAL _angles16
;--------------------------------------------------------
; Externals used
;--------------------------------------------------------
;--------------------------------------------------------
; special function registers
;--------------------------------------------------------
;--------------------------------------------------------
; ram data
;--------------------------------------------------------
	SECTION bss_compiler
;--------------------------------------------------------
; ram data
;--------------------------------------------------------
	
IF 0
	
; .area _INITIALIZED removed by z88dk
	
_o:
	DEFS 1
	
ENDIF
	
;--------------------------------------------------------
; absolute external ram data
;--------------------------------------------------------
	SECTION IGNORE
;--------------------------------------------------------
; global & static initialisations
;--------------------------------------------------------
	SECTION code_crt_init
;--------------------------------------------------------
; Home
;--------------------------------------------------------
	SECTION IGNORE
;--------------------------------------------------------
; code
;--------------------------------------------------------
	SECTION code_compiler
;code.c:155: bool samplePixel(short xPos, short yPos) {
;	---------------------------------
; Function samplePixel
; ---------------------------------
_samplePixel:
	push	ix
	ld	ix,0
	add	ix,sp
	push	af
;code.c:156: return (((xPos / precision) + ((yPos + (o * 4)) / precision)) % 2);
	ld	c,(ix+4)
	ld	b,(ix+5)
	ld	l, c
	ld	h, b
	bit	7, b
	jr	Z,l_samplePixel_00103
	ld	hl,0x001f
	add	hl, bc
l_samplePixel_00103:
	ld	c, l
	ld	b, h
	sra	b
	rr	c
	sra	b
	rr	c
	sra	b
	rr	c
	sra	b
	rr	c
	sra	b
	rr	c
	ld	hl,_o
	ld	e, (hl)
	ld	d,0x00
	ex	de, hl
	add	hl, hl
	add	hl, hl
	ex	de, hl
	inc	sp
	inc	sp
	push	de
	ld	a,(ix+6)
	ld	d,(ix+7)
	add	a,(ix-2)
	ld	e, a
	ld	a, d
	adc	a,(ix-1)
	ld	d, a
	ld	l, e
	ld	h, d
	bit	7, d
	jr	Z,l_samplePixel_00104
	ld	hl,0x001f
	add	hl, de
l_samplePixel_00104:
	sra	h
	rr	l
	sra	h
	rr	l
	sra	h
	rr	l
	sra	h
	rr	l
	sra	h
	rr	l
	add	hl, bc
	ld	de,0x0002
	push	de
	push	hl
	call	__modsint_callee
	ex	de, hl
	ld	l, e
;code.c:157: }
	ld	sp, ix
	pop	ix
	ret
	SECTION rodata_compiler
_angles16:
	DEFW +0x0000
	DEFW +0x0000
	DEFW +0x0000
	DEFW +0x0a2f
	DEFW +0x0000
	DEFW +0x0517
	DEFW +0x0000
	DEFW +0x0364
	DEFW +0x0000
	DEFW +0x028b
	DEFW +0x0000
	DEFW +0x0208
	DEFW +0x0000
	DEFW +0x01b1
	DEFW +0x0000
	DEFW +0x0173
	DEFW +0x0000
	DEFW +0x0144
	DEFW +0x0000
	DEFW +0x0120
	DEFW +0x0000
	DEFW +0x0103
	DEFW +0x0000
	DEFW +0x00eb
	DEFW +0x0000
	DEFW +0x00d7
	DEFW +0x0000
	DEFW +0x00c6
	DEFW +0x0000
	DEFW +0x00b8
	DEFW +0x0000
	DEFW +0x00ab
	DEFW +0x0000
	DEFW +0x00a0
	DEFW +0x0000
	DEFW +0x0097
	DEFW +0x0000
	DEFW +0x008e
	DEFW +0x0000
	DEFW +0x0086
	DEFW +0x0000
	DEFW +0x0000
	DEFW +0x004b
	DEFW +0x0a2e
	DEFW +0x0025
	DEFW +0x0516
	DEFW +0x0019
	DEFW +0x0364
	DEFW +0x0012
	DEFW +0x028b
	DEFW +0x000f
	DEFW +0x0208
	DEFW +0x000c
	DEFW +0x01b1
	DEFW +0x000a
	DEFW +0x0173
	DEFW +0x0009
	DEFW +0x0144
	DEFW +0x0008
	DEFW +0x0120
	DEFW +0x0007
	DEFW +0x0103
	DEFW +0x0006
	DEFW +0x00eb
	DEFW +0x0006
	DEFW +0x00d7
	DEFW +0x0005
	DEFW +0x00c6
	DEFW +0x0005
	DEFW +0x00b8
	DEFW +0x0004
	DEFW +0x00ab
	DEFW +0x0004
	DEFW +0x00a0
	DEFW +0x0004
	DEFW +0x0097
	DEFW +0x0004
	DEFW +0x008e
	DEFW +0x0003
	DEFW +0x0086
	DEFW +0x0000
	DEFW +0x0000
	DEFW +0x0097
	DEFW +0x0a2b
	DEFW +0x004b
	DEFW +0x0515
	DEFW +0x0032
	DEFW +0x0363
	DEFW +0x0025
	DEFW +0x028a
	DEFW +0x001e
	DEFW +0x0207
	DEFW +0x0019
	DEFW +0x01b1
	DEFW +0x0015
	DEFW +0x0172
	DEFW +0x0012
	DEFW +0x0144
	DEFW +0x0010
	DEFW +0x0120
	DEFW +0x000f
	DEFW +0x0103
	DEFW +0x000d
	DEFW +0x00eb
	DEFW +0x000c
	DEFW +0x00d7
	DEFW +0x000b
	DEFW +0x00c6
	DEFW +0x000a
	DEFW +0x00b8
	DEFW +0x0009
	DEFW +0x00ab
	DEFW +0x0009
	DEFW +0x00a0
	DEFW +0x0008
	DEFW +0x0096
	DEFW +0x0008
	DEFW +0x008e
	DEFW +0x0007
	DEFW +0x0086
	DEFW +0x0000
	DEFW +0x0000
	DEFW +0x00e3
	DEFW +0x0a25
	DEFW +0x0071
	DEFW +0x0512
	DEFW +0x004b
	DEFW +0x0361
	DEFW +0x0038
	DEFW +0x0288
	DEFW +0x002d
	DEFW +0x0206
	DEFW +0x0025
	DEFW +0x01b0
	DEFW +0x0020
	DEFW +0x0172
	DEFW +0x001c
	DEFW +0x0143
	DEFW +0x0019
	DEFW +0x011f
	DEFW +0x0016
	DEFW +0x0102
	DEFW +0x0014
	DEFW +0x00ea
	DEFW +0x0012
	DEFW +0x00d6
	DEFW +0x0011
	DEFW +0x00c6
	DEFW +0x0010
	DEFW +0x00b7
	DEFW +0x000e
	DEFW +0x00ab
	DEFW +0x000e
	DEFW +0x00a0
	DEFW +0x000d
	DEFW +0x0096
	DEFW +0x000c
	DEFW +0x008d
	DEFW +0x000b
	DEFW +0x0086
	DEFW +0x0000
	DEFW +0x0000
	DEFW +0x012e
	DEFW +0x0a1d
	DEFW +0x0097
	DEFW +0x050e
	DEFW +0x0064
	DEFW +0x035e
	DEFW +0x004b
	DEFW +0x0286
	DEFW +0x003c
	DEFW +0x0205
	DEFW +0x0032
	DEFW +0x01ae
	DEFW +0x002b
	DEFW +0x0171
	DEFW +0x0025
	DEFW +0x0142
	DEFW +0x0021
	DEFW +0x011e
	DEFW +0x001e
	DEFW +0x0101
	DEFW +0x001b
	DEFW +0x00ea
	DEFW +0x0019
	DEFW +0x00d6
	DEFW +0x0017
	DEFW +0x00c5
	DEFW +0x0015
	DEFW +0x00b7
	DEFW +0x0013
	DEFW +0x00aa
	DEFW +0x0012
	DEFW +0x009f
	DEFW +0x0011
	DEFW +0x0096
	DEFW +0x0010
	DEFW +0x008d
	DEFW +0x000f
	DEFW +0x0085
	DEFW +0x0000
	DEFW +0x0000
	DEFW +0x0179
	DEFW +0x0a13
	DEFW +0x00bc
	DEFW +0x0509
	DEFW +0x007d
	DEFW +0x035b
	DEFW +0x005e
	DEFW +0x0284
	DEFW +0x004b
	DEFW +0x0203
	DEFW +0x003e
	DEFW +0x01ad
	DEFW +0x0035
	DEFW +0x016f
	DEFW +0x002f
	DEFW +0x0141
	DEFW +0x0029
	DEFW +0x011d
	DEFW +0x0025
	DEFW +0x0100
	DEFW +0x0022
	DEFW +0x00e9
	DEFW +0x001f
	DEFW +0x00d5
	DEFW +0x001c
	DEFW +0x00c4
	DEFW +0x001a
	DEFW +0x00b6
	DEFW +0x0018
	DEFW +0x00aa
	DEFW +0x0017
	DEFW +0x009f
	DEFW +0x0015
	DEFW +0x0095
	DEFW +0x0014
	DEFW +0x008c
	DEFW +0x0013
	DEFW +0x0085
	DEFW +0x0000
	DEFW +0x0000
	DEFW +0x01c4
	DEFW +0x0a07
	DEFW +0x00e2
	DEFW +0x0503
	DEFW +0x0096
	DEFW +0x0357
	DEFW +0x0071
	DEFW +0x0281
	DEFW +0x005a
	DEFW +0x0200
	DEFW +0x004b
	DEFW +0x01ab
	DEFW +0x0040
	DEFW +0x016d
	DEFW +0x0038
	DEFW +0x013f
	DEFW +0x0032
	DEFW +0x011c
	DEFW +0x002d
	DEFW +0x00ff
	DEFW +0x0028
	DEFW +0x00e8
	DEFW +0x0025
	DEFW +0x00d4
	DEFW +0x0022
	DEFW +0x00c3
	DEFW +0x0020
	DEFW +0x00b5
	DEFW +0x001d
	DEFW +0x00a9
	DEFW +0x001b
	DEFW +0x009e
	DEFW +0x001a
	DEFW +0x0094
	DEFW +0x0018
	DEFW +0x008c
	DEFW +0x0017
	DEFW +0x0084
	DEFW +0x0000
	DEFW +0x0000
	DEFW +0x020f
	DEFW +0x09f9
	DEFW +0x0107
	DEFW +0x04fc
	DEFW +0x00af
	DEFW +0x0352
	DEFW +0x0083
	DEFW +0x027d
	DEFW +0x0069
	DEFW +0x01fe
	DEFW +0x0057
	DEFW +0x01a8
	DEFW +0x004b
	DEFW +0x016b
	DEFW +0x0041
	DEFW +0x013e
	DEFW +0x003a
	DEFW +0x011a
	DEFW +0x0034
	DEFW +0x00fe
	DEFW +0x002f
	DEFW +0x00e6
	DEFW +0x002b
	DEFW +0x00d3
	DEFW +0x0028
	DEFW +0x00c2
	DEFW +0x0025
	DEFW +0x00b4
	DEFW +0x0022
	DEFW +0x00a8
	DEFW +0x0020
	DEFW +0x009d
	DEFW +0x001e
	DEFW +0x0094
	DEFW +0x001c
	DEFW +0x008b
	DEFW +0x001b
	DEFW +0x0083
	DEFW +0x0000
	DEFW +0x0000
	DEFW +0x0259
	DEFW +0x09e9
	DEFW +0x012c
	DEFW +0x04f4
	DEFW +0x00c8
	DEFW +0x034d
	DEFW +0x0096
	DEFW +0x0279
	DEFW +0x0078
	DEFW +0x01fa
	DEFW +0x0064
	DEFW +0x01a6
	DEFW +0x0055
	DEFW +0x0169
	DEFW +0x004a
	DEFW +0x013c
	DEFW +0x0042
	DEFW +0x0118
	DEFW +0x003b
	DEFW +0x00fc
	DEFW +0x0036
	DEFW +0x00e5
	DEFW +0x0031
	DEFW +0x00d1
	DEFW +0x002d
	DEFW +0x00c1
	DEFW +0x002a
	DEFW +0x00b3
	DEFW +0x0027
	DEFW +0x00a7
	DEFW +0x0025
	DEFW +0x009c
	DEFW +0x0022
	DEFW +0x0093
	DEFW +0x0020
	DEFW +0x008a
	DEFW +0x001f
	DEFW +0x0083
	DEFW +0x0000
	DEFW +0x0000
	DEFW +0x02a2
	DEFW +0x09d6
	DEFW +0x0151
	DEFW +0x04eb
	DEFW +0x00e0
	DEFW +0x0347
	DEFW +0x00a8
	DEFW +0x0275
	DEFW +0x0086
	DEFW +0x01f7
	DEFW +0x0070
	DEFW +0x01a3
	DEFW +0x0060
	DEFW +0x0166
	DEFW +0x0054
	DEFW +0x0139
	DEFW +0x004a
	DEFW +0x0116
	DEFW +0x0043
	DEFW +0x00fa
	DEFW +0x003c
	DEFW +0x00e3
	DEFW +0x0037
	DEFW +0x00d0
	DEFW +0x0033
	DEFW +0x00c0
	DEFW +0x002f
	DEFW +0x00b2
	DEFW +0x002c
	DEFW +0x00a6
	DEFW +0x0029
	DEFW +0x009b
	DEFW +0x0027
	DEFW +0x0092
	DEFW +0x0024
	DEFW +0x0089
	DEFW +0x0022
	DEFW +0x0082
	DEFW +0x0000
	DEFW +0x0000
	DEFW +0x02eb
	DEFW +0x09c1
	DEFW +0x0175
	DEFW +0x04e0
	DEFW +0x00f9
	DEFW +0x0340
	DEFW +0x00ba
	DEFW +0x0270
	DEFW +0x0095
	DEFW +0x01f2
	DEFW +0x007c
	DEFW +0x019f
	DEFW +0x006a
	DEFW +0x0163
	DEFW +0x005d
	DEFW +0x0137
	DEFW +0x0052
	DEFW +0x0114
	DEFW +0x004a
	DEFW +0x00f8
	DEFW +0x0043
	DEFW +0x00e1
	DEFW +0x003d
	DEFW +0x00ce
	DEFW +0x0039
	DEFW +0x00be
	DEFW +0x0034
	DEFW +0x00b0
	DEFW +0x0031
	DEFW +0x00a4
	DEFW +0x002e
	DEFW +0x009a
	DEFW +0x002b
	DEFW +0x0090
	DEFW +0x0028
	DEFW +0x0088
	DEFW +0x0026
	DEFW +0x0081
	DEFW +0x0000
	DEFW +0x0000
	DEFW +0x0334
	DEFW +0x09ab
	DEFW +0x019a
	DEFW +0x04d5
	DEFW +0x0111
	DEFW +0x0338
	DEFW +0x00cc
	DEFW +0x026a
	DEFW +0x00a3
	DEFW +0x01ee
	DEFW +0x0088
	DEFW +0x019b
	DEFW +0x0074
	DEFW +0x0160
	DEFW +0x0066
	DEFW +0x0134
	DEFW +0x005a
	DEFW +0x0111
	DEFW +0x0051
	DEFW +0x00f6
	DEFW +0x004a
	DEFW +0x00df
	DEFW +0x0043
	DEFW +0x00cc
	DEFW +0x003e
	DEFW +0x00bc
	DEFW +0x003a
	DEFW +0x00af
	DEFW +0x0036
	DEFW +0x00a3
	DEFW +0x0032
	DEFW +0x0098
	DEFW +0x002f
	DEFW +0x008f
	DEFW +0x002c
	DEFW +0x0087
	DEFW +0x002a
	DEFW +0x007f
	DEFW +0x0000
	DEFW +0x0000
	DEFW +0x037b
	DEFW +0x0992
	DEFW +0x01bd
	DEFW +0x04c8
	DEFW +0x0129
	DEFW +0x0330
	DEFW +0x00de
	DEFW +0x0264
	DEFW +0x00b2
	DEFW +0x01e9
	DEFW +0x0094
	DEFW +0x0197
	DEFW +0x007f
	DEFW +0x015d
	DEFW +0x006f
	DEFW +0x0131
	DEFW +0x0062
	DEFW +0x010f
	DEFW +0x0058
	DEFW +0x00f3
	DEFW +0x0050
	DEFW +0x00dd
	DEFW +0x0049
	DEFW +0x00ca
	DEFW +0x0044
	DEFW +0x00ba
	DEFW +0x003f
	DEFW +0x00ad
	DEFW +0x003a
	DEFW +0x00a1
	DEFW +0x0037
	DEFW +0x0097
	DEFW +0x0033
	DEFW +0x008e
	DEFW +0x0030
	DEFW +0x0085
	DEFW +0x002e
	DEFW +0x007e
	DEFW +0x0000
	DEFW +0x0000
	DEFW +0x03c2
	DEFW +0x0977
	DEFW +0x01e1
	DEFW +0x04bb
	DEFW +0x0140
	DEFW +0x0327
	DEFW +0x00f0
	DEFW +0x025d
	DEFW +0x00c0
	DEFW +0x01e4
	DEFW +0x00a0
	DEFW +0x0193
	DEFW +0x0089
	DEFW +0x0159
	DEFW +0x0077
	DEFW +0x012d
	DEFW +0x006a
	DEFW +0x010c
	DEFW +0x005f
	DEFW +0x00f1
	DEFW +0x0056
	DEFW +0x00da
	DEFW +0x004f
	DEFW +0x00c8
	DEFW +0x0049
	DEFW +0x00b8
	DEFW +0x0044
	DEFW +0x00ab
	DEFW +0x003f
	DEFW +0x009f
	DEFW +0x003b
	DEFW +0x0095
	DEFW +0x0037
	DEFW +0x008c
	DEFW +0x0034
	DEFW +0x0084
	DEFW +0x0031
	DEFW +0x007d
	DEFW +0x0000
	DEFW +0x0000
	DEFW +0x0408
	DEFW +0x095a
	DEFW +0x0204
	DEFW +0x04ac
	DEFW +0x0158
	DEFW +0x031d
	DEFW +0x0101
	DEFW +0x0256
	DEFW +0x00ce
	DEFW +0x01de
	DEFW +0x00ab
	DEFW +0x018e
	DEFW +0x0093
	DEFW +0x0155
	DEFW +0x0080
	DEFW +0x012a
	DEFW +0x0072
	DEFW +0x0108
	DEFW +0x0066
	DEFW +0x00ee
	DEFW +0x005d
	DEFW +0x00d8
	DEFW +0x0055
	DEFW +0x00c6
	DEFW +0x004e
	DEFW +0x00b6
	DEFW +0x0049
	DEFW +0x00a9
	DEFW +0x0044
	DEFW +0x009d
	DEFW +0x003f
	DEFW +0x0093
	DEFW +0x003b
	DEFW +0x008a
	DEFW +0x0038
	DEFW +0x0082
	DEFW +0x0035
	DEFW +0x007b
	DEFW +0x0000
	DEFW +0x0000
	DEFW +0x044d
	DEFW +0x093b
	DEFW +0x0226
	DEFW +0x049d
	DEFW +0x016f
	DEFW +0x0313
	DEFW +0x0113
	DEFW +0x024e
	DEFW +0x00dc
	DEFW +0x01d8
	DEFW +0x00b7
	DEFW +0x0189
	DEFW +0x009d
	DEFW +0x0150
	DEFW +0x0089
	DEFW +0x0126
	DEFW +0x0079
	DEFW +0x0105
	DEFW +0x006d
	DEFW +0x00eb
	DEFW +0x0063
	DEFW +0x00d5
	DEFW +0x005b
	DEFW +0x00c3
	DEFW +0x0054
	DEFW +0x00b4
	DEFW +0x004d
	DEFW +0x00a7
	DEFW +0x0048
	DEFW +0x009b
	DEFW +0x0043
	DEFW +0x0091
	DEFW +0x003f
	DEFW +0x0088
	DEFW +0x003c
	DEFW +0x0081
	DEFW +0x0038
	DEFW +0x007a
	DEFW +0x0000
	DEFW +0x0000
	DEFW +0x0492
	DEFW +0x091a
	DEFW +0x0249
	DEFW +0x048c
	DEFW +0x0185
	DEFW +0x0308
	DEFW +0x0124
	DEFW +0x0246
	DEFW +0x00e9
	DEFW +0x01d1
	DEFW +0x00c2
	DEFW +0x0183
	DEFW +0x00a6
	DEFW +0x014c
	DEFW +0x0091
	DEFW +0x0122
	DEFW +0x0081
	DEFW +0x0101
	DEFW +0x0074
	DEFW +0x00e7
	DEFW +0x0069
	DEFW +0x00d2
	DEFW +0x0060
	DEFW +0x00c0
	DEFW +0x0059
	DEFW +0x00b1
	DEFW +0x0052
	DEFW +0x00a4
	DEFW +0x004d
	DEFW +0x0099
	DEFW +0x0048
	DEFW +0x008f
	DEFW +0x0043
	DEFW +0x0087
	DEFW +0x003f
	DEFW +0x007f
	DEFW +0x003c
	DEFW +0x0078
	DEFW +0x0000
	DEFW +0x0000
	DEFW +0x04d5
	DEFW +0x08f7
	DEFW +0x026a
	DEFW +0x047b
	DEFW +0x019c
	DEFW +0x02fc
	DEFW +0x0135
	DEFW +0x023d
	DEFW +0x00f7
	DEFW +0x01ca
	DEFW +0x00cd
	DEFW +0x017d
	DEFW +0x00b0
	DEFW +0x0147
	DEFW +0x009a
	DEFW +0x011d
	DEFW +0x0088
	DEFW +0x00fd
	DEFW +0x007b
	DEFW +0x00e4
	DEFW +0x006f
	DEFW +0x00cf
	DEFW +0x0066
	DEFW +0x00bd
	DEFW +0x005e
	DEFW +0x00af
	DEFW +0x0057
	DEFW +0x00a2
	DEFW +0x0051
	DEFW +0x0097
	DEFW +0x004c
	DEFW +0x008d
	DEFW +0x0047
	DEFW +0x0085
	DEFW +0x0043
	DEFW +0x007d
	DEFW +0x003f
	DEFW +0x0076
	DEFW +0x0000
	DEFW +0x0000
	DEFW +0x0517
	DEFW +0x08d2
	DEFW +0x028b
	DEFW +0x0468
	DEFW +0x01b2
	DEFW +0x02f0
	DEFW +0x0145
	DEFW +0x0234
	DEFW +0x0104
	DEFW +0x01c3
	DEFW +0x00d8
	DEFW +0x0177
	DEFW +0x00b9
	DEFW +0x0141
	DEFW +0x00a2
	DEFW +0x0119
	DEFW +0x0090
	DEFW +0x00f9
	DEFW +0x0081
	DEFW +0x00e0
	DEFW +0x0075
	DEFW +0x00cc
	DEFW +0x006b
	DEFW +0x00ba
	DEFW +0x0063
	DEFW +0x00ac
	DEFW +0x005c
	DEFW +0x009f
	DEFW +0x0055
	DEFW +0x0094
	DEFW +0x0050
	DEFW +0x008b
	DEFW +0x004b
	DEFW +0x0082
	DEFW +0x0047
	DEFW +0x007b
	DEFW +0x0043
	DEFW +0x0074
	DEFW +0x0000
	DEFW +0x0000
	DEFW +0x0558
	DEFW +0x08ab
	DEFW +0x02ac
	DEFW +0x0455
	DEFW +0x01c8
	DEFW +0x02e3
	DEFW +0x0155
	DEFW +0x022a
	DEFW +0x0111
	DEFW +0x01bb
	DEFW +0x00e3
	DEFW +0x0171
	DEFW +0x00c3
	DEFW +0x013c
	DEFW +0x00aa
	DEFW +0x0114
	DEFW +0x0097
	DEFW +0x00f5
	DEFW +0x0088
	DEFW +0x00dc
	DEFW +0x007b
	DEFW +0x00c8
	DEFW +0x0071
	DEFW +0x00b7
	DEFW +0x0068
	DEFW +0x00a9
	DEFW +0x0060
	DEFW +0x009c
	DEFW +0x005a
	DEFW +0x0092
	DEFW +0x0054
	DEFW +0x0088
	DEFW +0x004f
	DEFW +0x0080
	DEFW +0x004a
	DEFW +0x0079
	DEFW +0x0046
	DEFW +0x0072
	DEFW +0x0000
	DEFW +0x0000
	DEFW +0x0598
	DEFW +0x0882
	DEFW +0x02cc
	DEFW +0x0441
	DEFW +0x01dd
	DEFW +0x02d5
	DEFW +0x0165
	DEFW +0x0220
	DEFW +0x011e
	DEFW +0x01b3
	DEFW +0x00ee
	DEFW +0x016a
	DEFW +0x00cc
	DEFW +0x0136
	DEFW +0x00b2
	DEFW +0x010f
	DEFW +0x009e
	DEFW +0x00f1
	DEFW +0x008e
	DEFW +0x00d8
	DEFW +0x0081
	DEFW +0x00c4
	DEFW +0x0076
	DEFW +0x00b4
	DEFW +0x006d
	DEFW +0x00a6
	DEFW +0x0065
	DEFW +0x009a
	DEFW +0x005e
	DEFW +0x008f
	DEFW +0x0058
	DEFW +0x0086
	DEFW +0x0053
	DEFW +0x007e
	DEFW +0x004e
	DEFW +0x0077
	DEFW +0x004a
	DEFW +0x0070
	DEFW +0x0000
	DEFW +0x0000
	DEFW +0x05d7
	DEFW +0x0857
	DEFW +0x02eb
	DEFW +0x042b
	DEFW +0x01f2
	DEFW +0x02c7
	DEFW +0x0175
	DEFW +0x0215
	DEFW +0x012a
	DEFW +0x01aa
	DEFW +0x00f8
	DEFW +0x0163
	DEFW +0x00d5
	DEFW +0x0130
	DEFW +0x00ba
	DEFW +0x010a
	DEFW +0x00a5
	DEFW +0x00ec
	DEFW +0x0094
	DEFW +0x00d4
	DEFW +0x0087
	DEFW +0x00c1
	DEFW +0x007b
	DEFW +0x00b0
	DEFW +0x0072
	DEFW +0x00a2
	DEFW +0x0069
	DEFW +0x0097
	DEFW +0x0062
	DEFW +0x008c
	DEFW +0x005c
	DEFW +0x0083
	DEFW +0x0056
	DEFW +0x007b
	DEFW +0x0051
	DEFW +0x0074
	DEFW +0x004d
	DEFW +0x006e
	DEFW +0x0000
	DEFW +0x0000
	DEFW +0x0615
	DEFW +0x082b
	DEFW +0x030a
	DEFW +0x0415
	DEFW +0x0206
	DEFW +0x02b8
	DEFW +0x0184
	DEFW +0x020a
	DEFW +0x0137
	DEFW +0x01a1
	DEFW +0x0103
	DEFW +0x015b
	DEFW +0x00dd
	DEFW +0x012a
	DEFW +0x00c2
	DEFW +0x0104
	DEFW +0x00ac
	DEFW +0x00e7
	DEFW +0x009a
	DEFW +0x00d0
	DEFW +0x008c
	DEFW +0x00bc
	DEFW +0x0080
	DEFW +0x00ad
	DEFW +0x0076
	DEFW +0x009f
	DEFW +0x006e
	DEFW +0x0093
	DEFW +0x0066
	DEFW +0x0089
	DEFW +0x0060
	DEFW +0x0081
	DEFW +0x005a
	DEFW +0x0079
	DEFW +0x0055
	DEFW +0x0072
	DEFW +0x0050
	DEFW +0x006c
	DEFW +0x0000
	DEFW +0x0000
	DEFW +0x0651
	DEFW +0x07fd
	DEFW +0x0328
	DEFW +0x03fe
	DEFW +0x021a
	DEFW +0x02a9
	DEFW +0x0194
	DEFW +0x01fe
	DEFW +0x0143
	DEFW +0x0198
	DEFW +0x010d
	DEFW +0x0154
	DEFW +0x00e6
	DEFW +0x0123
	DEFW +0x00c9
	DEFW +0x00fe
	DEFW +0x00b2
	DEFW +0x00e2
	DEFW +0x00a0
	DEFW +0x00cb
	DEFW +0x0092
	DEFW +0x00b8
	DEFW +0x0085
	DEFW +0x00a9
	DEFW +0x007b
	DEFW +0x009c
	DEFW +0x0072
	DEFW +0x0090
	DEFW +0x006a
	DEFW +0x0086
	DEFW +0x0063
	DEFW +0x007e
	DEFW +0x005d
	DEFW +0x0076
	DEFW +0x0058
	DEFW +0x006f
	DEFW +0x0053
	DEFW +0x0069
	DEFW +0x0000
	DEFW +0x0000
	DEFW +0x068c
	DEFW +0x07cd
	DEFW +0x0345
	DEFW +0x03e6
	DEFW +0x022e
	DEFW +0x0299
	DEFW +0x01a2
	DEFW +0x01f2
	DEFW +0x014e
	DEFW +0x018f
	DEFW +0x0116
	DEFW +0x014c
	DEFW +0x00ee
	DEFW +0x011c
	DEFW +0x00d0
	DEFW +0x00f8
	DEFW +0x00b9
	DEFW +0x00dd
	DEFW +0x00a6
	DEFW +0x00c6
	DEFW +0x0097
	DEFW +0x00b4
	DEFW +0x008a
	DEFW +0x00a5
	DEFW +0x007f
	DEFW +0x0098
	DEFW +0x0076
	DEFW +0x008d
	DEFW +0x006e
	DEFW +0x0083
	DEFW +0x0067
	DEFW +0x007b
	DEFW +0x0061
	DEFW +0x0073
	DEFW +0x005b
	DEFW +0x006d
	DEFW +0x0056
	DEFW +0x0067
	DEFW +0x0000
	DEFW +0x0000
	DEFW +0x06c5
	DEFW +0x079b
	DEFW +0x0362
	DEFW +0x03cd
	DEFW +0x0241
	DEFW +0x0289
	DEFW +0x01b1
	DEFW +0x01e6
	DEFW +0x015a
	DEFW +0x0185
	DEFW +0x0120
	DEFW +0x0144
	DEFW +0x00f7
	DEFW +0x0115
	DEFW +0x00d7
	DEFW +0x00f2
	DEFW +0x00bf
	DEFW +0x00d7
	DEFW +0x00ac
	DEFW +0x00c1
	DEFW +0x009c
	DEFW +0x00b0
	DEFW +0x008f
	DEFW +0x00a1
	DEFW +0x0084
	DEFW +0x0094
	DEFW +0x007a
	DEFW +0x0089
	DEFW +0x0072
	DEFW +0x0080
	DEFW +0x006a
	DEFW +0x0078
	DEFW +0x0064
	DEFW +0x0070
	DEFW +0x005e
	DEFW +0x006a
	DEFW +0x0059
	DEFW +0x0064
	DEFW +0x0000
	DEFW +0x0000
	DEFW +0x06fd
	DEFW +0x0768
	DEFW +0x037e
	DEFW +0x03b4
	DEFW +0x0254
	DEFW +0x0277
	DEFW +0x01bf
	DEFW +0x01d9
	DEFW +0x0165
	DEFW +0x017a
	DEFW +0x0129
	DEFW +0x013b
	DEFW +0x00ff
	DEFW +0x010e
	DEFW +0x00de
	DEFW +0x00ec
	DEFW +0x00c6
	DEFW +0x00d1
	DEFW +0x00b2
	DEFW +0x00bc
	DEFW +0x00a1
	DEFW +0x00ab
	DEFW +0x0094
	DEFW +0x009c
	DEFW +0x0088
	DEFW +0x0090
	DEFW +0x007e
	DEFW +0x0086
	DEFW +0x0075
	DEFW +0x007d
	DEFW +0x006e
	DEFW +0x0075
	DEFW +0x0067
	DEFW +0x006d
	DEFW +0x0061
	DEFW +0x0067
	DEFW +0x005c
	DEFW +0x0062
	DEFW +0x0000
	DEFW +0x0000
	DEFW +0x0733
	DEFW +0x0733
	DEFW +0x0399
	DEFW +0x0399
	DEFW +0x0266
	DEFW +0x0266
	DEFW +0x01cc
	DEFW +0x01cc
	DEFW +0x0170
	DEFW +0x0170
	DEFW +0x0132
	DEFW +0x0132
	DEFW +0x0106
	DEFW +0x0106
	DEFW +0x00e5
	DEFW +0x00e5
	DEFW +0x00cc
	DEFW +0x00cc
	DEFW +0x00b7
	DEFW +0x00b7
	DEFW +0x00a6
	DEFW +0x00a6
	DEFW +0x0098
	DEFW +0x0098
	DEFW +0x008c
	DEFW +0x008c
	DEFW +0x0082
	DEFW +0x0082
	DEFW +0x0079
	DEFW +0x0079
	DEFW +0x0071
	DEFW +0x0071
	DEFW +0x006a
	DEFW +0x006a
	DEFW +0x0064
	DEFW +0x0064
	DEFW +0x005f
	DEFW +0x005f
	DEFW +0x0000
	DEFW +0x0000
	DEFW +0x0768
	DEFW +0x06fd
	DEFW +0x03b4
	DEFW +0x037e
	DEFW +0x0277
	DEFW +0x0254
	DEFW +0x01d9
	DEFW +0x01bf
	DEFW +0x017a
	DEFW +0x0165
	DEFW +0x013b
	DEFW +0x0129
	DEFW +0x010e
	DEFW +0x00ff
	DEFW +0x00ec
	DEFW +0x00de
	DEFW +0x00d1
	DEFW +0x00c6
	DEFW +0x00bc
	DEFW +0x00b2
	DEFW +0x00ab
	DEFW +0x00a1
	DEFW +0x009c
	DEFW +0x0094
	DEFW +0x0090
	DEFW +0x0088
	DEFW +0x0086
	DEFW +0x007e
	DEFW +0x007d
	DEFW +0x0075
	DEFW +0x0075
	DEFW +0x006e
	DEFW +0x006d
	DEFW +0x0067
	DEFW +0x0067
	DEFW +0x0061
	DEFW +0x0062
	DEFW +0x005c
	DEFW +0x0000
	DEFW +0x0000
	DEFW +0x079b
	DEFW +0x06c5
	DEFW +0x03cd
	DEFW +0x0362
	DEFW +0x0289
	DEFW +0x0241
	DEFW +0x01e6
	DEFW +0x01b1
	DEFW +0x0185
	DEFW +0x015a
	DEFW +0x0144
	DEFW +0x0120
	DEFW +0x0115
	DEFW +0x00f7
	DEFW +0x00f2
	DEFW +0x00d7
	DEFW +0x00d7
	DEFW +0x00bf
	DEFW +0x00c1
	DEFW +0x00ac
	DEFW +0x00b0
	DEFW +0x009c
	DEFW +0x00a1
	DEFW +0x008f
	DEFW +0x0094
	DEFW +0x0084
	DEFW +0x0089
	DEFW +0x007a
	DEFW +0x0080
	DEFW +0x0072
	DEFW +0x0078
	DEFW +0x006a
	DEFW +0x0070
	DEFW +0x0064
	DEFW +0x006a
	DEFW +0x005e
	DEFW +0x0064
	DEFW +0x0059
	DEFW +0x0000
	DEFW +0x0000
	DEFW +0x07cd
	DEFW +0x068c
	DEFW +0x03e6
	DEFW +0x0345
	DEFW +0x0299
	DEFW +0x022e
	DEFW +0x01f2
	DEFW +0x01a2
	DEFW +0x018f
	DEFW +0x014e
	DEFW +0x014c
	DEFW +0x0116
	DEFW +0x011c
	DEFW +0x00ee
	DEFW +0x00f8
	DEFW +0x00d0
	DEFW +0x00dd
	DEFW +0x00b9
	DEFW +0x00c6
	DEFW +0x00a6
	DEFW +0x00b4
	DEFW +0x0097
	DEFW +0x00a5
	DEFW +0x008a
	DEFW +0x0098
	DEFW +0x007f
	DEFW +0x008d
	DEFW +0x0076
	DEFW +0x0083
	DEFW +0x006e
	DEFW +0x007b
	DEFW +0x0067
	DEFW +0x0073
	DEFW +0x0061
	DEFW +0x006d
	DEFW +0x005b
	DEFW +0x0067
	DEFW +0x0056
	DEFW +0x0000
	DEFW +0x0000
	DEFW +0x07fd
	DEFW +0x0651
	DEFW +0x03fe
	DEFW +0x0328
	DEFW +0x02a9
	DEFW +0x021a
	DEFW +0x01fe
	DEFW +0x0194
	DEFW +0x0198
	DEFW +0x0143
	DEFW +0x0154
	DEFW +0x010d
	DEFW +0x0123
	DEFW +0x00e6
	DEFW +0x00fe
	DEFW +0x00c9
	DEFW +0x00e2
	DEFW +0x00b2
	DEFW +0x00cb
	DEFW +0x00a0
	DEFW +0x00b8
	DEFW +0x0092
	DEFW +0x00a9
	DEFW +0x0085
	DEFW +0x009c
	DEFW +0x007b
	DEFW +0x0090
	DEFW +0x0072
	DEFW +0x0086
	DEFW +0x006a
	DEFW +0x007e
	DEFW +0x0063
	DEFW +0x0076
	DEFW +0x005d
	DEFW +0x006f
	DEFW +0x0058
	DEFW +0x0069
	DEFW +0x0053
	DEFW +0x0000
	DEFW +0x0000
	DEFW +0x082b
	DEFW +0x0615
	DEFW +0x0415
	DEFW +0x030a
	DEFW +0x02b8
	DEFW +0x0206
	DEFW +0x020a
	DEFW +0x0184
	DEFW +0x01a1
	DEFW +0x0137
	DEFW +0x015b
	DEFW +0x0103
	DEFW +0x012a
	DEFW +0x00dd
	DEFW +0x0104
	DEFW +0x00c2
	DEFW +0x00e7
	DEFW +0x00ac
	DEFW +0x00d0
	DEFW +0x009a
	DEFW +0x00bc
	DEFW +0x008c
	DEFW +0x00ad
	DEFW +0x0080
	DEFW +0x009f
	DEFW +0x0076
	DEFW +0x0093
	DEFW +0x006e
	DEFW +0x0089
	DEFW +0x0066
	DEFW +0x0081
	DEFW +0x0060
	DEFW +0x0079
	DEFW +0x005a
	DEFW +0x0072
	DEFW +0x0055
	DEFW +0x006c
	DEFW +0x0050
	DEFW +0x0000
	DEFW +0x0000
	DEFW +0x0857
	DEFW +0x05d7
	DEFW +0x042b
	DEFW +0x02eb
	DEFW +0x02c7
	DEFW +0x01f2
	DEFW +0x0215
	DEFW +0x0175
	DEFW +0x01aa
	DEFW +0x012a
	DEFW +0x0163
	DEFW +0x00f8
	DEFW +0x0130
	DEFW +0x00d5
	DEFW +0x010a
	DEFW +0x00ba
	DEFW +0x00ec
	DEFW +0x00a5
	DEFW +0x00d4
	DEFW +0x0094
	DEFW +0x00c1
	DEFW +0x0087
	DEFW +0x00b0
	DEFW +0x007b
	DEFW +0x00a2
	DEFW +0x0072
	DEFW +0x0097
	DEFW +0x0069
	DEFW +0x008c
	DEFW +0x0062
	DEFW +0x0083
	DEFW +0x005c
	DEFW +0x007b
	DEFW +0x0056
	DEFW +0x0074
	DEFW +0x0051
	DEFW +0x006e
	DEFW +0x004d
	DEFW +0x0000
	DEFW +0x0000
	DEFW +0x0882
	DEFW +0x0598
	DEFW +0x0441
	DEFW +0x02cc
	DEFW +0x02d5
	DEFW +0x01dd
	DEFW +0x0220
	DEFW +0x0165
	DEFW +0x01b3
	DEFW +0x011e
	DEFW +0x016a
	DEFW +0x00ee
	DEFW +0x0136
	DEFW +0x00cc
	DEFW +0x010f
	DEFW +0x00b2
	DEFW +0x00f1
	DEFW +0x009e
	DEFW +0x00d8
	DEFW +0x008e
	DEFW +0x00c4
	DEFW +0x0081
	DEFW +0x00b4
	DEFW +0x0076
	DEFW +0x00a6
	DEFW +0x006d
	DEFW +0x009a
	DEFW +0x0065
	DEFW +0x008f
	DEFW +0x005e
	DEFW +0x0086
	DEFW +0x0058
	DEFW +0x007e
	DEFW +0x0053
	DEFW +0x0077
	DEFW +0x004e
	DEFW +0x0070
	DEFW +0x004a
	DEFW +0x0000
	DEFW +0x0000
	DEFW +0x08ab
	DEFW +0x0558
	DEFW +0x0455
	DEFW +0x02ac
	DEFW +0x02e3
	DEFW +0x01c8
	DEFW +0x022a
	DEFW +0x0155
	DEFW +0x01bb
	DEFW +0x0111
	DEFW +0x0171
	DEFW +0x00e3
	DEFW +0x013c
	DEFW +0x00c3
	DEFW +0x0114
	DEFW +0x00aa
	DEFW +0x00f5
	DEFW +0x0097
	DEFW +0x00dc
	DEFW +0x0088
	DEFW +0x00c8
	DEFW +0x007b
	DEFW +0x00b7
	DEFW +0x0071
	DEFW +0x00a9
	DEFW +0x0068
	DEFW +0x009c
	DEFW +0x0060
	DEFW +0x0092
	DEFW +0x005a
	DEFW +0x0088
	DEFW +0x0054
	DEFW +0x0080
	DEFW +0x004f
	DEFW +0x0079
	DEFW +0x004a
	DEFW +0x0072
	DEFW +0x0046
	DEFW +0x0000
	DEFW +0x0000
	DEFW +0x08d2
	DEFW +0x0517
	DEFW +0x0468
	DEFW +0x028b
	DEFW +0x02f0
	DEFW +0x01b2
	DEFW +0x0234
	DEFW +0x0145
	DEFW +0x01c3
	DEFW +0x0104
	DEFW +0x0177
	DEFW +0x00d8
	DEFW +0x0141
	DEFW +0x00b9
	DEFW +0x0119
	DEFW +0x00a2
	DEFW +0x00f9
	DEFW +0x0090
	DEFW +0x00e0
	DEFW +0x0081
	DEFW +0x00cc
	DEFW +0x0075
	DEFW +0x00ba
	DEFW +0x006b
	DEFW +0x00ac
	DEFW +0x0063
	DEFW +0x009f
	DEFW +0x005c
	DEFW +0x0094
	DEFW +0x0055
	DEFW +0x008b
	DEFW +0x0050
	DEFW +0x0082
	DEFW +0x004b
	DEFW +0x007b
	DEFW +0x0047
	DEFW +0x0074
	DEFW +0x0043
	DEFW +0x0000
	DEFW +0x0000
	DEFW +0x08f7
	DEFW +0x04d5
	DEFW +0x047b
	DEFW +0x026a
	DEFW +0x02fc
	DEFW +0x019c
	DEFW +0x023d
	DEFW +0x0135
	DEFW +0x01ca
	DEFW +0x00f7
	DEFW +0x017d
	DEFW +0x00cd
	DEFW +0x0147
	DEFW +0x00b0
	DEFW +0x011d
	DEFW +0x009a
	DEFW +0x00fd
	DEFW +0x0088
	DEFW +0x00e4
	DEFW +0x007b
	DEFW +0x00cf
	DEFW +0x006f
	DEFW +0x00bd
	DEFW +0x0066
	DEFW +0x00af
	DEFW +0x005e
	DEFW +0x00a2
	DEFW +0x0057
	DEFW +0x0097
	DEFW +0x0051
	DEFW +0x008d
	DEFW +0x004c
	DEFW +0x0085
	DEFW +0x0047
	DEFW +0x007d
	DEFW +0x0043
	DEFW +0x0076
	DEFW +0x003f
	DEFW +0x0000
	DEFW +0x0000
	DEFW +0x091a
	DEFW +0x0492
	DEFW +0x048c
	DEFW +0x0249
	DEFW +0x0308
	DEFW +0x0185
	DEFW +0x0246
	DEFW +0x0124
	DEFW +0x01d1
	DEFW +0x00e9
	DEFW +0x0183
	DEFW +0x00c2
	DEFW +0x014c
	DEFW +0x00a6
	DEFW +0x0122
	DEFW +0x0091
	DEFW +0x0101
	DEFW +0x0081
	DEFW +0x00e7
	DEFW +0x0074
	DEFW +0x00d2
	DEFW +0x0069
	DEFW +0x00c0
	DEFW +0x0060
	DEFW +0x00b1
	DEFW +0x0059
	DEFW +0x00a4
	DEFW +0x0052
	DEFW +0x0099
	DEFW +0x004d
	DEFW +0x008f
	DEFW +0x0048
	DEFW +0x0087
	DEFW +0x0043
	DEFW +0x007f
	DEFW +0x003f
	DEFW +0x0078
	DEFW +0x003c
	DEFW +0x0000
	DEFW +0x0000
	DEFW +0x093b
	DEFW +0x044d
	DEFW +0x049d
	DEFW +0x0226
	DEFW +0x0313
	DEFW +0x016f
	DEFW +0x024e
	DEFW +0x0113
	DEFW +0x01d8
	DEFW +0x00dc
	DEFW +0x0189
	DEFW +0x00b7
	DEFW +0x0150
	DEFW +0x009d
	DEFW +0x0126
	DEFW +0x0089
	DEFW +0x0105
	DEFW +0x0079
	DEFW +0x00eb
	DEFW +0x006d
	DEFW +0x00d5
	DEFW +0x0063
	DEFW +0x00c3
	DEFW +0x005b
	DEFW +0x00b4
	DEFW +0x0054
	DEFW +0x00a7
	DEFW +0x004d
	DEFW +0x009b
	DEFW +0x0048
	DEFW +0x0091
	DEFW +0x0043
	DEFW +0x0088
	DEFW +0x003f
	DEFW +0x0081
	DEFW +0x003c
	DEFW +0x007a
	DEFW +0x0038
	DEFW +0x0000
	DEFW +0x0000
	DEFW +0x095a
	DEFW +0x0408
	DEFW +0x04ac
	DEFW +0x0204
	DEFW +0x031d
	DEFW +0x0158
	DEFW +0x0256
	DEFW +0x0101
	DEFW +0x01de
	DEFW +0x00ce
	DEFW +0x018e
	DEFW +0x00ab
	DEFW +0x0155
	DEFW +0x0093
	DEFW +0x012a
	DEFW +0x0080
	DEFW +0x0108
	DEFW +0x0072
	DEFW +0x00ee
	DEFW +0x0066
	DEFW +0x00d8
	DEFW +0x005d
	DEFW +0x00c6
	DEFW +0x0055
	DEFW +0x00b6
	DEFW +0x004e
	DEFW +0x00a9
	DEFW +0x0049
	DEFW +0x009d
	DEFW +0x0044
	DEFW +0x0093
	DEFW +0x003f
	DEFW +0x008a
	DEFW +0x003b
	DEFW +0x0082
	DEFW +0x0038
	DEFW +0x007b
	DEFW +0x0035
	DEFW +0x0000
	DEFW +0x0000
	DEFW +0x0977
	DEFW +0x03c2
	DEFW +0x04bb
	DEFW +0x01e1
	DEFW +0x0327
	DEFW +0x0140
	DEFW +0x025d
	DEFW +0x00f0
	DEFW +0x01e4
	DEFW +0x00c0
	DEFW +0x0193
	DEFW +0x00a0
	DEFW +0x0159
	DEFW +0x0089
	DEFW +0x012d
	DEFW +0x0077
	DEFW +0x010c
	DEFW +0x006a
	DEFW +0x00f1
	DEFW +0x005f
	DEFW +0x00da
	DEFW +0x0056
	DEFW +0x00c8
	DEFW +0x004f
	DEFW +0x00b8
	DEFW +0x0049
	DEFW +0x00ab
	DEFW +0x0044
	DEFW +0x009f
	DEFW +0x003f
	DEFW +0x0095
	DEFW +0x003b
	DEFW +0x008c
	DEFW +0x0037
	DEFW +0x0084
	DEFW +0x0034
	DEFW +0x007d
	DEFW +0x0031
	DEFW +0x0000
	DEFW +0x0000
	DEFW +0x0992
	DEFW +0x037b
	DEFW +0x04c8
	DEFW +0x01bd
	DEFW +0x0330
	DEFW +0x0129
	DEFW +0x0264
	DEFW +0x00de
	DEFW +0x01e9
	DEFW +0x00b2
	DEFW +0x0197
	DEFW +0x0094
	DEFW +0x015d
	DEFW +0x007f
	DEFW +0x0131
	DEFW +0x006f
	DEFW +0x010f
	DEFW +0x0062
	DEFW +0x00f3
	DEFW +0x0058
	DEFW +0x00dd
	DEFW +0x0050
	DEFW +0x00ca
	DEFW +0x0049
	DEFW +0x00ba
	DEFW +0x0044
	DEFW +0x00ad
	DEFW +0x003f
	DEFW +0x00a1
	DEFW +0x003a
	DEFW +0x0097
	DEFW +0x0037
	DEFW +0x008e
	DEFW +0x0033
	DEFW +0x0085
	DEFW +0x0030
	DEFW +0x007e
	DEFW +0x002e
	DEFW +0x0000
	DEFW +0x0000
	DEFW +0x09ab
	DEFW +0x0334
	DEFW +0x04d5
	DEFW +0x019a
	DEFW +0x0338
	DEFW +0x0111
	DEFW +0x026a
	DEFW +0x00cc
	DEFW +0x01ee
	DEFW +0x00a3
	DEFW +0x019b
	DEFW +0x0088
	DEFW +0x0160
	DEFW +0x0074
	DEFW +0x0134
	DEFW +0x0066
	DEFW +0x0111
	DEFW +0x005a
	DEFW +0x00f6
	DEFW +0x0051
	DEFW +0x00df
	DEFW +0x004a
	DEFW +0x00cc
	DEFW +0x0043
	DEFW +0x00bc
	DEFW +0x003e
	DEFW +0x00af
	DEFW +0x003a
	DEFW +0x00a3
	DEFW +0x0036
	DEFW +0x0098
	DEFW +0x0032
	DEFW +0x008f
	DEFW +0x002f
	DEFW +0x0087
	DEFW +0x002c
	DEFW +0x007f
	DEFW +0x002a
	DEFW +0x0000
	DEFW +0x0000
	DEFW +0x09c1
	DEFW +0x02eb
	DEFW +0x04e0
	DEFW +0x0175
	DEFW +0x0340
	DEFW +0x00f9
	DEFW +0x0270
	DEFW +0x00ba
	DEFW +0x01f2
	DEFW +0x0095
	DEFW +0x019f
	DEFW +0x007c
	DEFW +0x0163
	DEFW +0x006a
	DEFW +0x0137
	DEFW +0x005d
	DEFW +0x0114
	DEFW +0x0052
	DEFW +0x00f8
	DEFW +0x004a
	DEFW +0x00e1
	DEFW +0x0043
	DEFW +0x00ce
	DEFW +0x003d
	DEFW +0x00be
	DEFW +0x0039
	DEFW +0x00b0
	DEFW +0x0034
	DEFW +0x00a4
	DEFW +0x0031
	DEFW +0x009a
	DEFW +0x002e
	DEFW +0x0090
	DEFW +0x002b
	DEFW +0x0088
	DEFW +0x0028
	DEFW +0x0081
	DEFW +0x0026
	DEFW +0x0000
	DEFW +0x0000
	DEFW +0x09d6
	DEFW +0x02a2
	DEFW +0x04eb
	DEFW +0x0151
	DEFW +0x0347
	DEFW +0x00e0
	DEFW +0x0275
	DEFW +0x00a8
	DEFW +0x01f7
	DEFW +0x0086
	DEFW +0x01a3
	DEFW +0x0070
	DEFW +0x0166
	DEFW +0x0060
	DEFW +0x0139
	DEFW +0x0054
	DEFW +0x0116
	DEFW +0x004a
	DEFW +0x00fa
	DEFW +0x0043
	DEFW +0x00e3
	DEFW +0x003c
	DEFW +0x00d0
	DEFW +0x0037
	DEFW +0x00c0
	DEFW +0x0033
	DEFW +0x00b2
	DEFW +0x002f
	DEFW +0x00a6
	DEFW +0x002c
	DEFW +0x009b
	DEFW +0x0029
	DEFW +0x0092
	DEFW +0x0027
	DEFW +0x0089
	DEFW +0x0024
	DEFW +0x0082
	DEFW +0x0022
	DEFW +0x0000
	DEFW +0x0000
	DEFW +0x09e9
	DEFW +0x0259
	DEFW +0x04f4
	DEFW +0x012c
	DEFW +0x034d
	DEFW +0x00c8
	DEFW +0x0279
	DEFW +0x0096
	DEFW +0x01fa
	DEFW +0x0078
	DEFW +0x01a6
	DEFW +0x0064
	DEFW +0x0169
	DEFW +0x0055
	DEFW +0x013c
	DEFW +0x004a
	DEFW +0x0118
	DEFW +0x0042
	DEFW +0x00fc
	DEFW +0x003b
	DEFW +0x00e5
	DEFW +0x0036
	DEFW +0x00d1
	DEFW +0x0031
	DEFW +0x00c1
	DEFW +0x002d
	DEFW +0x00b3
	DEFW +0x002a
	DEFW +0x00a7
	DEFW +0x0027
	DEFW +0x009c
	DEFW +0x0025
	DEFW +0x0093
	DEFW +0x0022
	DEFW +0x008a
	DEFW +0x0020
	DEFW +0x0083
	DEFW +0x001f
	DEFW +0x0000
	DEFW +0x0000
	DEFW +0x09f9
	DEFW +0x020f
	DEFW +0x04fc
	DEFW +0x0107
	DEFW +0x0352
	DEFW +0x00af
	DEFW +0x027d
	DEFW +0x0083
	DEFW +0x01fe
	DEFW +0x0069
	DEFW +0x01a8
	DEFW +0x0057
	DEFW +0x016b
	DEFW +0x004b
	DEFW +0x013e
	DEFW +0x0041
	DEFW +0x011a
	DEFW +0x003a
	DEFW +0x00fe
	DEFW +0x0034
	DEFW +0x00e6
	DEFW +0x002f
	DEFW +0x00d3
	DEFW +0x002b
	DEFW +0x00c2
	DEFW +0x0028
	DEFW +0x00b4
	DEFW +0x0025
	DEFW +0x00a8
	DEFW +0x0022
	DEFW +0x009d
	DEFW +0x0020
	DEFW +0x0094
	DEFW +0x001e
	DEFW +0x008b
	DEFW +0x001c
	DEFW +0x0083
	DEFW +0x001b
	DEFW +0x0000
	DEFW +0x0000
	DEFW +0x0a07
	DEFW +0x01c4
	DEFW +0x0503
	DEFW +0x00e2
	DEFW +0x0357
	DEFW +0x0096
	DEFW +0x0281
	DEFW +0x0071
	DEFW +0x0200
	DEFW +0x005a
	DEFW +0x01ab
	DEFW +0x004b
	DEFW +0x016d
	DEFW +0x0040
	DEFW +0x013f
	DEFW +0x0038
	DEFW +0x011c
	DEFW +0x0032
	DEFW +0x00ff
	DEFW +0x002d
	DEFW +0x00e8
	DEFW +0x0028
	DEFW +0x00d4
	DEFW +0x0025
	DEFW +0x00c3
	DEFW +0x0022
	DEFW +0x00b5
	DEFW +0x0020
	DEFW +0x00a9
	DEFW +0x001d
	DEFW +0x009e
	DEFW +0x001b
	DEFW +0x0094
	DEFW +0x001a
	DEFW +0x008c
	DEFW +0x0018
	DEFW +0x0084
	DEFW +0x0017
	DEFW +0x0000
	DEFW +0x0000
	DEFW +0x0a13
	DEFW +0x0179
	DEFW +0x0509
	DEFW +0x00bc
	DEFW +0x035b
	DEFW +0x007d
	DEFW +0x0284
	DEFW +0x005e
	DEFW +0x0203
	DEFW +0x004b
	DEFW +0x01ad
	DEFW +0x003e
	DEFW +0x016f
	DEFW +0x0035
	DEFW +0x0141
	DEFW +0x002f
	DEFW +0x011d
	DEFW +0x0029
	DEFW +0x0100
	DEFW +0x0025
	DEFW +0x00e9
	DEFW +0x0022
	DEFW +0x00d5
	DEFW +0x001f
	DEFW +0x00c4
	DEFW +0x001c
	DEFW +0x00b6
	DEFW +0x001a
	DEFW +0x00aa
	DEFW +0x0018
	DEFW +0x009f
	DEFW +0x0017
	DEFW +0x0095
	DEFW +0x0015
	DEFW +0x008c
	DEFW +0x0014
	DEFW +0x0085
	DEFW +0x0013
	DEFW +0x0000
	DEFW +0x0000
	DEFW +0x0a1d
	DEFW +0x012e
	DEFW +0x050e
	DEFW +0x0097
	DEFW +0x035e
	DEFW +0x0064
	DEFW +0x0286
	DEFW +0x004b
	DEFW +0x0205
	DEFW +0x003c
	DEFW +0x01ae
	DEFW +0x0032
	DEFW +0x0171
	DEFW +0x002b
	DEFW +0x0142
	DEFW +0x0025
	DEFW +0x011e
	DEFW +0x0021
	DEFW +0x0101
	DEFW +0x001e
	DEFW +0x00ea
	DEFW +0x001b
	DEFW +0x00d6
	DEFW +0x0019
	DEFW +0x00c5
	DEFW +0x0017
	DEFW +0x00b7
	DEFW +0x0015
	DEFW +0x00aa
	DEFW +0x0013
	DEFW +0x009f
	DEFW +0x0012
	DEFW +0x0096
	DEFW +0x0011
	DEFW +0x008d
	DEFW +0x0010
	DEFW +0x0085
	DEFW +0x000f
	DEFW +0x0000
	DEFW +0x0000
	DEFW +0x0a25
	DEFW +0x00e3
	DEFW +0x0512
	DEFW +0x0071
	DEFW +0x0361
	DEFW +0x004b
	DEFW +0x0288
	DEFW +0x0038
	DEFW +0x0206
	DEFW +0x002d
	DEFW +0x01b0
	DEFW +0x0025
	DEFW +0x0172
	DEFW +0x0020
	DEFW +0x0143
	DEFW +0x001c
	DEFW +0x011f
	DEFW +0x0019
	DEFW +0x0102
	DEFW +0x0016
	DEFW +0x00ea
	DEFW +0x0014
	DEFW +0x00d6
	DEFW +0x0012
	DEFW +0x00c6
	DEFW +0x0011
	DEFW +0x00b7
	DEFW +0x0010
	DEFW +0x00ab
	DEFW +0x000e
	DEFW +0x00a0
	DEFW +0x000e
	DEFW +0x0096
	DEFW +0x000d
	DEFW +0x008d
	DEFW +0x000c
	DEFW +0x0086
	DEFW +0x000b
	DEFW +0x0000
	DEFW +0x0000
	DEFW +0x0a2b
	DEFW +0x0097
	DEFW +0x0515
	DEFW +0x004b
	DEFW +0x0363
	DEFW +0x0032
	DEFW +0x028a
	DEFW +0x0025
	DEFW +0x0207
	DEFW +0x001e
	DEFW +0x01b1
	DEFW +0x0019
	DEFW +0x0172
	DEFW +0x0015
	DEFW +0x0144
	DEFW +0x0012
	DEFW +0x0120
	DEFW +0x0010
	DEFW +0x0103
	DEFW +0x000f
	DEFW +0x00eb
	DEFW +0x000d
	DEFW +0x00d7
	DEFW +0x000c
	DEFW +0x00c6
	DEFW +0x000b
	DEFW +0x00b8
	DEFW +0x000a
	DEFW +0x00ab
	DEFW +0x0009
	DEFW +0x00a0
	DEFW +0x0009
	DEFW +0x0096
	DEFW +0x0008
	DEFW +0x008e
	DEFW +0x0008
	DEFW +0x0086
	DEFW +0x0007
	DEFW +0x0000
	DEFW +0x0000
	DEFW +0x0a2e
	DEFW +0x004b
	DEFW +0x0516
	DEFW +0x0025
	DEFW +0x0364
	DEFW +0x0019
	DEFW +0x028b
	DEFW +0x0012
	DEFW +0x0208
	DEFW +0x000f
	DEFW +0x01b1
	DEFW +0x000c
	DEFW +0x0173
	DEFW +0x000a
	DEFW +0x0144
	DEFW +0x0009
	DEFW +0x0120
	DEFW +0x0008
	DEFW +0x0103
	DEFW +0x0007
	DEFW +0x00eb
	DEFW +0x0006
	DEFW +0x00d7
	DEFW +0x0006
	DEFW +0x00c6
	DEFW +0x0005
	DEFW +0x00b8
	DEFW +0x0005
	DEFW +0x00ab
	DEFW +0x0004
	DEFW +0x00a0
	DEFW +0x0004
	DEFW +0x0097
	DEFW +0x0004
	DEFW +0x008e
	DEFW +0x0004
	DEFW +0x0086
	DEFW +0x0003
_angles8:
	DEFB +0x00
	DEFB +0x7f
	DEFB +0x00
	DEFB +0x79
	DEFB +0x00
	DEFB +0x73
	DEFB +0x00
	DEFB +0x6e
	DEFB +0x00
	DEFB +0x69
	DEFB +0x00
	DEFB +0x65
	DEFB +0x00
	DEFB +0x60
	DEFB +0x00
	DEFB +0x5d
	DEFB +0x00
	DEFB +0x59
	DEFB +0x00
	DEFB +0x56
	DEFB +0x00
	DEFB +0x52
	DEFB +0x00
	DEFB +0x50
	DEFB +0x03
	DEFB +0x7f
	DEFB +0x03
	DEFB +0x79
	DEFB +0x03
	DEFB +0x73
	DEFB +0x03
	DEFB +0x6e
	DEFB +0x03
	DEFB +0x69
	DEFB +0x02
	DEFB +0x64
	DEFB +0x02
	DEFB +0x60
	DEFB +0x02
	DEFB +0x5c
	DEFB +0x02
	DEFB +0x59
	DEFB +0x02
	DEFB +0x56
	DEFB +0x02
	DEFB +0x52
	DEFB +0x02
	DEFB +0x4f
	DEFB +0x07
	DEFB +0x7f
	DEFB +0x07
	DEFB +0x79
	DEFB +0x06
	DEFB +0x73
	DEFB +0x06
	DEFB +0x6e
	DEFB +0x06
	DEFB +0x69
	DEFB +0x05
	DEFB +0x64
	DEFB +0x05
	DEFB +0x60
	DEFB +0x05
	DEFB +0x5c
	DEFB +0x05
	DEFB +0x59
	DEFB +0x05
	DEFB +0x55
	DEFB +0x04
	DEFB +0x52
	DEFB +0x04
	DEFB +0x4f
	DEFB +0x0b
	DEFB +0x7f
	DEFB +0x0a
	DEFB +0x78
	DEFB +0x0a
	DEFB +0x73
	DEFB +0x09
	DEFB +0x6d
	DEFB +0x09
	DEFB +0x69
	DEFB +0x08
	DEFB +0x64
	DEFB +0x08
	DEFB +0x60
	DEFB +0x08
	DEFB +0x5c
	DEFB +0x07
	DEFB +0x59
	DEFB +0x07
	DEFB +0x55
	DEFB +0x07
	DEFB +0x52
	DEFB +0x06
	DEFB +0x4f
	DEFB +0x0e
	DEFB +0x7e
	DEFB +0x0e
	DEFB +0x78
	DEFB +0x0d
	DEFB +0x72
	DEFB +0x0c
	DEFB +0x6d
	DEFB +0x0c
	DEFB +0x68
	DEFB +0x0b
	DEFB +0x64
	DEFB +0x0b
	DEFB +0x60
	DEFB +0x0a
	DEFB +0x5c
	DEFB +0x0a
	DEFB +0x58
	DEFB +0x09
	DEFB +0x55
	DEFB +0x09
	DEFB +0x52
	DEFB +0x09
	DEFB +0x4f
	DEFB +0x12
	DEFB +0x7e
	DEFB +0x11
	DEFB +0x78
	DEFB +0x10
	DEFB +0x72
	DEFB +0x0f
	DEFB +0x6d
	DEFB +0x0f
	DEFB +0x68
	DEFB +0x0e
	DEFB +0x63
	DEFB +0x0e
	DEFB +0x5f
	DEFB +0x0d
	DEFB +0x5c
	DEFB +0x0c
	DEFB +0x58
	DEFB +0x0c
	DEFB +0x55
	DEFB +0x0c
	DEFB +0x52
	DEFB +0x0b
	DEFB +0x4f
	DEFB +0x16
	DEFB +0x7d
	DEFB +0x15
	DEFB +0x77
	DEFB +0x14
	DEFB +0x71
	DEFB +0x13
	DEFB +0x6c
	DEFB +0x12
	DEFB +0x67
	DEFB +0x11
	DEFB +0x63
	DEFB +0x10
	DEFB +0x5f
	DEFB +0x10
	DEFB +0x5b
	DEFB +0x0f
	DEFB +0x58
	DEFB +0x0e
	DEFB +0x54
	DEFB +0x0e
	DEFB +0x51
	DEFB +0x0d
	DEFB +0x4e
	DEFB +0x19
	DEFB +0x7d
	DEFB +0x18
	DEFB +0x76
	DEFB +0x17
	DEFB +0x71
	DEFB +0x16
	DEFB +0x6c
	DEFB +0x15
	DEFB +0x67
	DEFB +0x14
	DEFB +0x62
	DEFB +0x13
	DEFB +0x5e
	DEFB +0x12
	DEFB +0x5b
	DEFB +0x12
	DEFB +0x57
	DEFB +0x11
	DEFB +0x54
	DEFB +0x10
	DEFB +0x51
	DEFB +0x10
	DEFB +0x4e
	DEFB +0x1d
	DEFB +0x7c
	DEFB +0x1b
	DEFB +0x76
	DEFB +0x1a
	DEFB +0x70
	DEFB +0x19
	DEFB +0x6b
	DEFB +0x18
	DEFB +0x66
	DEFB +0x17
	DEFB +0x62
	DEFB +0x16
	DEFB +0x5e
	DEFB +0x15
	DEFB +0x5a
	DEFB +0x14
	DEFB +0x57
	DEFB +0x13
	DEFB +0x53
	DEFB +0x13
	DEFB +0x50
	DEFB +0x12
	DEFB +0x4d
	DEFB +0x21
	DEFB +0x7b
	DEFB +0x1f
	DEFB +0x75
	DEFB +0x1d
	DEFB +0x6f
	DEFB +0x1c
	DEFB +0x6a
	DEFB +0x1b
	DEFB +0x65
	DEFB +0x1a
	DEFB +0x61
	DEFB +0x19
	DEFB +0x5d
	DEFB +0x18
	DEFB +0x59
	DEFB +0x17
	DEFB +0x56
	DEFB +0x16
	DEFB +0x53
	DEFB +0x15
	DEFB +0x50
	DEFB +0x14
	DEFB +0x4d
	DEFB +0x24
	DEFB +0x7a
	DEFB +0x22
	DEFB +0x74
	DEFB +0x21
	DEFB +0x6e
	DEFB +0x1f
	DEFB +0x69
	DEFB +0x1e
	DEFB +0x65
	DEFB +0x1c
	DEFB +0x60
	DEFB +0x1b
	DEFB +0x5c
	DEFB +0x1a
	DEFB +0x59
	DEFB +0x19
	DEFB +0x55
	DEFB +0x18
	DEFB +0x52
	DEFB +0x17
	DEFB +0x4f
	DEFB +0x16
	DEFB +0x4c
	DEFB +0x28
	DEFB +0x79
	DEFB +0x26
	DEFB +0x73
	DEFB +0x24
	DEFB +0x6d
	DEFB +0x22
	DEFB +0x68
	DEFB +0x21
	DEFB +0x64
	DEFB +0x1f
	DEFB +0x5f
	DEFB +0x1e
	DEFB +0x5b
	DEFB +0x1d
	DEFB +0x58
	DEFB +0x1c
	DEFB +0x54
	DEFB +0x1b
	DEFB +0x51
	DEFB +0x1a
	DEFB +0x4e
	DEFB +0x19
	DEFB +0x4b
	DEFB +0x2b
	DEFB +0x78
	DEFB +0x29
	DEFB +0x72
	DEFB +0x27
	DEFB +0x6c
	DEFB +0x25
	DEFB +0x67
	DEFB +0x24
	DEFB +0x63
	DEFB +0x22
	DEFB +0x5e
	DEFB +0x21
	DEFB +0x5b
	DEFB +0x1f
	DEFB +0x57
	DEFB +0x1e
	DEFB +0x54
	DEFB +0x1d
	DEFB +0x50
	DEFB +0x1c
	DEFB +0x4d
	DEFB +0x1b
	DEFB +0x4b
	DEFB +0x2f
	DEFB +0x76
	DEFB +0x2c
	DEFB +0x70
	DEFB +0x2a
	DEFB +0x6b
	DEFB +0x28
	DEFB +0x66
	DEFB +0x26
	DEFB +0x62
	DEFB +0x25
	DEFB +0x5d
	DEFB +0x23
	DEFB +0x5a
	DEFB +0x22
	DEFB +0x56
	DEFB +0x21
	DEFB +0x53
	DEFB +0x1f
	DEFB +0x50
	DEFB +0x1e
	DEFB +0x4d
	DEFB +0x1d
	DEFB +0x4a
	DEFB +0x32
	DEFB +0x75
	DEFB +0x30
	DEFB +0x6f
	DEFB +0x2d
	DEFB +0x6a
	DEFB +0x2b
	DEFB +0x65
	DEFB +0x29
	DEFB +0x60
	DEFB +0x28
	DEFB +0x5c
	DEFB +0x26
	DEFB +0x58
	DEFB +0x24
	DEFB +0x55
	DEFB +0x23
	DEFB +0x52
	DEFB +0x22
	DEFB +0x4f
	DEFB +0x20
	DEFB +0x4c
	DEFB +0x1f
	DEFB +0x49
	DEFB +0x35
	DEFB +0x73
	DEFB +0x33
	DEFB +0x6e
	DEFB +0x30
	DEFB +0x68
	DEFB +0x2e
	DEFB +0x64
	DEFB +0x2c
	DEFB +0x5f
	DEFB +0x2a
	DEFB +0x5b
	DEFB +0x28
	DEFB +0x57
	DEFB +0x27
	DEFB +0x54
	DEFB +0x25
	DEFB +0x51
	DEFB +0x24
	DEFB +0x4e
	DEFB +0x23
	DEFB +0x4b
	DEFB +0x21
	DEFB +0x48
	DEFB +0x39
	DEFB +0x72
	DEFB +0x36
	DEFB +0x6c
	DEFB +0x33
	DEFB +0x67
	DEFB +0x31
	DEFB +0x62
	DEFB +0x2f
	DEFB +0x5e
	DEFB +0x2d
	DEFB +0x5a
	DEFB +0x2b
	DEFB +0x56
	DEFB +0x29
	DEFB +0x53
	DEFB +0x28
	DEFB +0x4f
	DEFB +0x26
	DEFB +0x4c
	DEFB +0x25
	DEFB +0x4a
	DEFB +0x23
	DEFB +0x47
	DEFB +0x3c
	DEFB +0x70
	DEFB +0x39
	DEFB +0x6a
	DEFB +0x36
	DEFB +0x65
	DEFB +0x34
	DEFB +0x61
	DEFB +0x32
	DEFB +0x5c
	DEFB +0x2f
	DEFB +0x58
	DEFB +0x2d
	DEFB +0x55
	DEFB +0x2c
	DEFB +0x51
	DEFB +0x2a
	DEFB +0x4e
	DEFB +0x28
	DEFB +0x4b
	DEFB +0x27
	DEFB +0x49
	DEFB +0x25
	DEFB +0x46
	DEFB +0x3f
	DEFB +0x6e
	DEFB +0x3c
	DEFB +0x69
	DEFB +0x39
	DEFB +0x64
	DEFB +0x37
	DEFB +0x5f
	DEFB +0x34
	DEFB +0x5b
	DEFB +0x32
	DEFB +0x57
	DEFB +0x30
	DEFB +0x53
	DEFB +0x2e
	DEFB +0x50
	DEFB +0x2c
	DEFB +0x4d
	DEFB +0x2b
	DEFB +0x4a
	DEFB +0x29
	DEFB +0x47
	DEFB +0x28
	DEFB +0x45
	DEFB +0x43
	DEFB +0x6c
	DEFB +0x3f
	DEFB +0x67
	DEFB +0x3c
	DEFB +0x62
	DEFB +0x39
	DEFB +0x5d
	DEFB +0x37
	DEFB +0x59
	DEFB +0x35
	DEFB +0x55
	DEFB +0x32
	DEFB +0x52
	DEFB +0x30
	DEFB +0x4f
	DEFB +0x2e
	DEFB +0x4c
	DEFB +0x2d
	DEFB +0x49
	DEFB +0x2b
	DEFB +0x46
	DEFB +0x2a
	DEFB +0x44
	DEFB +0x46
	DEFB +0x6a
	DEFB +0x42
	DEFB +0x65
	DEFB +0x3f
	DEFB +0x60
	DEFB +0x3c
	DEFB +0x5c
	DEFB +0x39
	DEFB +0x58
	DEFB +0x37
	DEFB +0x54
	DEFB +0x35
	DEFB +0x50
	DEFB +0x33
	DEFB +0x4d
	DEFB +0x31
	DEFB +0x4a
	DEFB +0x2f
	DEFB +0x47
	DEFB +0x2d
	DEFB +0x45
	DEFB +0x2b
	DEFB +0x42
	DEFB +0x49
	DEFB +0x68
	DEFB +0x45
	DEFB +0x63
	DEFB +0x42
	DEFB +0x5e
	DEFB +0x3f
	DEFB +0x5a
	DEFB +0x3c
	DEFB +0x56
	DEFB +0x39
	DEFB +0x52
	DEFB +0x37
	DEFB +0x4f
	DEFB +0x35
	DEFB +0x4c
	DEFB +0x33
	DEFB +0x49
	DEFB +0x31
	DEFB +0x46
	DEFB +0x2f
	DEFB +0x43
	DEFB +0x2d
	DEFB +0x41
	DEFB +0x4c
	DEFB +0x66
	DEFB +0x48
	DEFB +0x61
	DEFB +0x45
	DEFB +0x5c
	DEFB +0x41
	DEFB +0x58
	DEFB +0x3e
	DEFB +0x54
	DEFB +0x3c
	DEFB +0x51
	DEFB +0x39
	DEFB +0x4d
	DEFB +0x37
	DEFB +0x4a
	DEFB +0x35
	DEFB +0x47
	DEFB +0x33
	DEFB +0x45
	DEFB +0x31
	DEFB +0x42
	DEFB +0x2f
	DEFB +0x40
	DEFB +0x4f
	DEFB +0x64
	DEFB +0x4b
	DEFB +0x5f
	DEFB +0x47
	DEFB +0x5a
	DEFB +0x44
	DEFB +0x56
	DEFB +0x41
	DEFB +0x52
	DEFB +0x3e
	DEFB +0x4f
	DEFB +0x3c
	DEFB +0x4b
	DEFB +0x39
	DEFB +0x48
	DEFB +0x37
	DEFB +0x46
	DEFB +0x35
	DEFB +0x43
	DEFB +0x33
	DEFB +0x41
	DEFB +0x31
	DEFB +0x3e
	DEFB +0x52
	DEFB +0x61
	DEFB +0x4e
	DEFB +0x5d
	DEFB +0x4a
	DEFB +0x58
	DEFB +0x46
	DEFB +0x54
	DEFB +0x43
	DEFB +0x50
	DEFB +0x40
	DEFB +0x4d
	DEFB +0x3e
	DEFB +0x4a
	DEFB +0x3b
	DEFB +0x47
	DEFB +0x39
	DEFB +0x44
	DEFB +0x37
	DEFB +0x41
	DEFB +0x35
	DEFB +0x3f
	DEFB +0x33
	DEFB +0x3d
	DEFB +0x54
	DEFB +0x5f
	DEFB +0x50
	DEFB +0x5a
	DEFB +0x4c
	DEFB +0x56
	DEFB +0x49
	DEFB +0x52
	DEFB +0x46
	DEFB +0x4e
	DEFB +0x43
	DEFB +0x4b
	DEFB +0x40
	DEFB +0x48
	DEFB +0x3d
	DEFB +0x45
	DEFB +0x3b
	DEFB +0x42
	DEFB +0x39
	DEFB +0x40
	DEFB +0x37
	DEFB +0x3d
	DEFB +0x35
	DEFB +0x3b
	DEFB +0x57
	DEFB +0x5c
	DEFB +0x53
	DEFB +0x58
	DEFB +0x4f
	DEFB +0x54
	DEFB +0x4b
	DEFB +0x50
	DEFB +0x48
	DEFB +0x4c
	DEFB +0x45
	DEFB +0x49
	DEFB +0x42
	DEFB +0x46
	DEFB +0x3f
	DEFB +0x43
	DEFB +0x3d
	DEFB +0x41
	DEFB +0x3b
	DEFB +0x3e
	DEFB +0x38
	DEFB +0x3c
	DEFB +0x36
	DEFB +0x3a
	DEFB +0x5a
	DEFB +0x5a
	DEFB +0x55
	DEFB +0x55
	DEFB +0x51
	DEFB +0x51
	DEFB +0x4e
	DEFB +0x4e
	DEFB +0x4a
	DEFB +0x4a
	DEFB +0x47
	DEFB +0x47
	DEFB +0x44
	DEFB +0x44
	DEFB +0x41
	DEFB +0x41
	DEFB +0x3f
	DEFB +0x3f
	DEFB +0x3c
	DEFB +0x3c
	DEFB +0x3a
	DEFB +0x3a
	DEFB +0x38
	DEFB +0x38
	DEFB +0x5c
	DEFB +0x57
	DEFB +0x58
	DEFB +0x53
	DEFB +0x54
	DEFB +0x4f
	DEFB +0x50
	DEFB +0x4b
	DEFB +0x4c
	DEFB +0x48
	DEFB +0x49
	DEFB +0x45
	DEFB +0x46
	DEFB +0x42
	DEFB +0x43
	DEFB +0x3f
	DEFB +0x41
	DEFB +0x3d
	DEFB +0x3e
	DEFB +0x3b
	DEFB +0x3c
	DEFB +0x38
	DEFB +0x3a
	DEFB +0x36
	DEFB +0x5f
	DEFB +0x54
	DEFB +0x5a
	DEFB +0x50
	DEFB +0x56
	DEFB +0x4c
	DEFB +0x52
	DEFB +0x49
	DEFB +0x4e
	DEFB +0x46
	DEFB +0x4b
	DEFB +0x43
	DEFB +0x48
	DEFB +0x40
	DEFB +0x45
	DEFB +0x3d
	DEFB +0x42
	DEFB +0x3b
	DEFB +0x40
	DEFB +0x39
	DEFB +0x3d
	DEFB +0x37
	DEFB +0x3b
	DEFB +0x35
	DEFB +0x61
	DEFB +0x52
	DEFB +0x5d
	DEFB +0x4e
	DEFB +0x58
	DEFB +0x4a
	DEFB +0x54
	DEFB +0x46
	DEFB +0x50
	DEFB +0x43
	DEFB +0x4d
	DEFB +0x40
	DEFB +0x4a
	DEFB +0x3e
	DEFB +0x47
	DEFB +0x3b
	DEFB +0x44
	DEFB +0x39
	DEFB +0x41
	DEFB +0x37
	DEFB +0x3f
	DEFB +0x35
	DEFB +0x3d
	DEFB +0x33
	DEFB +0x64
	DEFB +0x4f
	DEFB +0x5f
	DEFB +0x4b
	DEFB +0x5a
	DEFB +0x47
	DEFB +0x56
	DEFB +0x44
	DEFB +0x52
	DEFB +0x41
	DEFB +0x4f
	DEFB +0x3e
	DEFB +0x4b
	DEFB +0x3c
	DEFB +0x48
	DEFB +0x39
	DEFB +0x46
	DEFB +0x37
	DEFB +0x43
	DEFB +0x35
	DEFB +0x41
	DEFB +0x33
	DEFB +0x3e
	DEFB +0x31
	DEFB +0x66
	DEFB +0x4c
	DEFB +0x61
	DEFB +0x48
	DEFB +0x5c
	DEFB +0x45
	DEFB +0x58
	DEFB +0x41
	DEFB +0x54
	DEFB +0x3e
	DEFB +0x51
	DEFB +0x3c
	DEFB +0x4d
	DEFB +0x39
	DEFB +0x4a
	DEFB +0x37
	DEFB +0x47
	DEFB +0x35
	DEFB +0x45
	DEFB +0x33
	DEFB +0x42
	DEFB +0x31
	DEFB +0x40
	DEFB +0x2f
	DEFB +0x68
	DEFB +0x49
	DEFB +0x63
	DEFB +0x45
	DEFB +0x5e
	DEFB +0x42
	DEFB +0x5a
	DEFB +0x3f
	DEFB +0x56
	DEFB +0x3c
	DEFB +0x52
	DEFB +0x39
	DEFB +0x4f
	DEFB +0x37
	DEFB +0x4c
	DEFB +0x35
	DEFB +0x49
	DEFB +0x33
	DEFB +0x46
	DEFB +0x31
	DEFB +0x43
	DEFB +0x2f
	DEFB +0x41
	DEFB +0x2d
	DEFB +0x6a
	DEFB +0x46
	DEFB +0x65
	DEFB +0x42
	DEFB +0x60
	DEFB +0x3f
	DEFB +0x5c
	DEFB +0x3c
	DEFB +0x58
	DEFB +0x39
	DEFB +0x54
	DEFB +0x37
	DEFB +0x50
	DEFB +0x35
	DEFB +0x4d
	DEFB +0x33
	DEFB +0x4a
	DEFB +0x31
	DEFB +0x47
	DEFB +0x2f
	DEFB +0x45
	DEFB +0x2d
	DEFB +0x42
	DEFB +0x2b
	DEFB +0x6c
	DEFB +0x43
	DEFB +0x67
	DEFB +0x3f
	DEFB +0x62
	DEFB +0x3c
	DEFB +0x5d
	DEFB +0x39
	DEFB +0x59
	DEFB +0x37
	DEFB +0x55
	DEFB +0x35
	DEFB +0x52
	DEFB +0x32
	DEFB +0x4f
	DEFB +0x30
	DEFB +0x4c
	DEFB +0x2e
	DEFB +0x49
	DEFB +0x2d
	DEFB +0x46
	DEFB +0x2b
	DEFB +0x44
	DEFB +0x2a
	DEFB +0x6e
	DEFB +0x3f
	DEFB +0x69
	DEFB +0x3c
	DEFB +0x64
	DEFB +0x39
	DEFB +0x5f
	DEFB +0x37
	DEFB +0x5b
	DEFB +0x34
	DEFB +0x57
	DEFB +0x32
	DEFB +0x53
	DEFB +0x30
	DEFB +0x50
	DEFB +0x2e
	DEFB +0x4d
	DEFB +0x2c
	DEFB +0x4a
	DEFB +0x2b
	DEFB +0x47
	DEFB +0x29
	DEFB +0x45
	DEFB +0x28
	DEFB +0x70
	DEFB +0x3c
	DEFB +0x6a
	DEFB +0x39
	DEFB +0x65
	DEFB +0x36
	DEFB +0x61
	DEFB +0x34
	DEFB +0x5c
	DEFB +0x32
	DEFB +0x58
	DEFB +0x2f
	DEFB +0x55
	DEFB +0x2d
	DEFB +0x51
	DEFB +0x2c
	DEFB +0x4e
	DEFB +0x2a
	DEFB +0x4b
	DEFB +0x28
	DEFB +0x49
	DEFB +0x27
	DEFB +0x46
	DEFB +0x25
	DEFB +0x72
	DEFB +0x39
	DEFB +0x6c
	DEFB +0x36
	DEFB +0x67
	DEFB +0x33
	DEFB +0x62
	DEFB +0x31
	DEFB +0x5e
	DEFB +0x2f
	DEFB +0x5a
	DEFB +0x2d
	DEFB +0x56
	DEFB +0x2b
	DEFB +0x53
	DEFB +0x29
	DEFB +0x4f
	DEFB +0x28
	DEFB +0x4c
	DEFB +0x26
	DEFB +0x4a
	DEFB +0x25
	DEFB +0x47
	DEFB +0x23
	DEFB +0x73
	DEFB +0x35
	DEFB +0x6e
	DEFB +0x33
	DEFB +0x68
	DEFB +0x30
	DEFB +0x64
	DEFB +0x2e
	DEFB +0x5f
	DEFB +0x2c
	DEFB +0x5b
	DEFB +0x2a
	DEFB +0x57
	DEFB +0x28
	DEFB +0x54
	DEFB +0x27
	DEFB +0x51
	DEFB +0x25
	DEFB +0x4e
	DEFB +0x24
	DEFB +0x4b
	DEFB +0x23
	DEFB +0x48
	DEFB +0x21
	DEFB +0x75
	DEFB +0x32
	DEFB +0x6f
	DEFB +0x30
	DEFB +0x6a
	DEFB +0x2d
	DEFB +0x65
	DEFB +0x2b
	DEFB +0x60
	DEFB +0x29
	DEFB +0x5c
	DEFB +0x28
	DEFB +0x58
	DEFB +0x26
	DEFB +0x55
	DEFB +0x24
	DEFB +0x52
	DEFB +0x23
	DEFB +0x4f
	DEFB +0x22
	DEFB +0x4c
	DEFB +0x20
	DEFB +0x49
	DEFB +0x1f
	DEFB +0x76
	DEFB +0x2f
	DEFB +0x70
	DEFB +0x2c
	DEFB +0x6b
	DEFB +0x2a
	DEFB +0x66
	DEFB +0x28
	DEFB +0x62
	DEFB +0x26
	DEFB +0x5d
	DEFB +0x25
	DEFB +0x5a
	DEFB +0x23
	DEFB +0x56
	DEFB +0x22
	DEFB +0x53
	DEFB +0x21
	DEFB +0x50
	DEFB +0x1f
	DEFB +0x4d
	DEFB +0x1e
	DEFB +0x4a
	DEFB +0x1d
	DEFB +0x78
	DEFB +0x2b
	DEFB +0x72
	DEFB +0x29
	DEFB +0x6c
	DEFB +0x27
	DEFB +0x67
	DEFB +0x25
	DEFB +0x63
	DEFB +0x24
	DEFB +0x5e
	DEFB +0x22
	DEFB +0x5b
	DEFB +0x21
	DEFB +0x57
	DEFB +0x1f
	DEFB +0x54
	DEFB +0x1e
	DEFB +0x50
	DEFB +0x1d
	DEFB +0x4d
	DEFB +0x1c
	DEFB +0x4b
	DEFB +0x1b
	DEFB +0x79
	DEFB +0x28
	DEFB +0x73
	DEFB +0x26
	DEFB +0x6d
	DEFB +0x24
	DEFB +0x68
	DEFB +0x22
	DEFB +0x64
	DEFB +0x21
	DEFB +0x5f
	DEFB +0x1f
	DEFB +0x5b
	DEFB +0x1e
	DEFB +0x58
	DEFB +0x1d
	DEFB +0x54
	DEFB +0x1c
	DEFB +0x51
	DEFB +0x1b
	DEFB +0x4e
	DEFB +0x1a
	DEFB +0x4b
	DEFB +0x19
	DEFB +0x7a
	DEFB +0x24
	DEFB +0x74
	DEFB +0x22
	DEFB +0x6e
	DEFB +0x21
	DEFB +0x69
	DEFB +0x1f
	DEFB +0x65
	DEFB +0x1e
	DEFB +0x60
	DEFB +0x1c
	DEFB +0x5c
	DEFB +0x1b
	DEFB +0x59
	DEFB +0x1a
	DEFB +0x55
	DEFB +0x19
	DEFB +0x52
	DEFB +0x18
	DEFB +0x4f
	DEFB +0x17
	DEFB +0x4c
	DEFB +0x16
	DEFB +0x7b
	DEFB +0x21
	DEFB +0x75
	DEFB +0x1f
	DEFB +0x6f
	DEFB +0x1d
	DEFB +0x6a
	DEFB +0x1c
	DEFB +0x65
	DEFB +0x1b
	DEFB +0x61
	DEFB +0x1a
	DEFB +0x5d
	DEFB +0x19
	DEFB +0x59
	DEFB +0x18
	DEFB +0x56
	DEFB +0x17
	DEFB +0x53
	DEFB +0x16
	DEFB +0x50
	DEFB +0x15
	DEFB +0x4d
	DEFB +0x14
	DEFB +0x7c
	DEFB +0x1d
	DEFB +0x76
	DEFB +0x1b
	DEFB +0x70
	DEFB +0x1a
	DEFB +0x6b
	DEFB +0x19
	DEFB +0x66
	DEFB +0x18
	DEFB +0x62
	DEFB +0x17
	DEFB +0x5e
	DEFB +0x16
	DEFB +0x5a
	DEFB +0x15
	DEFB +0x57
	DEFB +0x14
	DEFB +0x53
	DEFB +0x13
	DEFB +0x50
	DEFB +0x13
	DEFB +0x4d
	DEFB +0x12
	DEFB +0x7d
	DEFB +0x19
	DEFB +0x76
	DEFB +0x18
	DEFB +0x71
	DEFB +0x17
	DEFB +0x6c
	DEFB +0x16
	DEFB +0x67
	DEFB +0x15
	DEFB +0x62
	DEFB +0x14
	DEFB +0x5e
	DEFB +0x13
	DEFB +0x5b
	DEFB +0x12
	DEFB +0x57
	DEFB +0x12
	DEFB +0x54
	DEFB +0x11
	DEFB +0x51
	DEFB +0x10
	DEFB +0x4e
	DEFB +0x10
	DEFB +0x7d
	DEFB +0x16
	DEFB +0x77
	DEFB +0x15
	DEFB +0x71
	DEFB +0x14
	DEFB +0x6c
	DEFB +0x13
	DEFB +0x67
	DEFB +0x12
	DEFB +0x63
	DEFB +0x11
	DEFB +0x5f
	DEFB +0x10
	DEFB +0x5b
	DEFB +0x10
	DEFB +0x58
	DEFB +0x0f
	DEFB +0x54
	DEFB +0x0e
	DEFB +0x51
	DEFB +0x0e
	DEFB +0x4e
	DEFB +0x0d
	DEFB +0x7e
	DEFB +0x12
	DEFB +0x78
	DEFB +0x11
	DEFB +0x72
	DEFB +0x10
	DEFB +0x6d
	DEFB +0x0f
	DEFB +0x68
	DEFB +0x0f
	DEFB +0x63
	DEFB +0x0e
	DEFB +0x5f
	DEFB +0x0e
	DEFB +0x5c
	DEFB +0x0d
	DEFB +0x58
	DEFB +0x0c
	DEFB +0x55
	DEFB +0x0c
	DEFB +0x52
	DEFB +0x0c
	DEFB +0x4f
	DEFB +0x0b
	DEFB +0x7e
	DEFB +0x0e
	DEFB +0x78
	DEFB +0x0e
	DEFB +0x72
	DEFB +0x0d
	DEFB +0x6d
	DEFB +0x0c
	DEFB +0x68
	DEFB +0x0c
	DEFB +0x64
	DEFB +0x0b
	DEFB +0x60
	DEFB +0x0b
	DEFB +0x5c
	DEFB +0x0a
	DEFB +0x58
	DEFB +0x0a
	DEFB +0x55
	DEFB +0x09
	DEFB +0x52
	DEFB +0x09
	DEFB +0x4f
	DEFB +0x09
	DEFB +0x7f
	DEFB +0x0b
	DEFB +0x78
	DEFB +0x0a
	DEFB +0x73
	DEFB +0x0a
	DEFB +0x6d
	DEFB +0x09
	DEFB +0x69
	DEFB +0x09
	DEFB +0x64
	DEFB +0x08
	DEFB +0x60
	DEFB +0x08
	DEFB +0x5c
	DEFB +0x08
	DEFB +0x59
	DEFB +0x07
	DEFB +0x55
	DEFB +0x07
	DEFB +0x52
	DEFB +0x07
	DEFB +0x4f
	DEFB +0x06
	DEFB +0x7f
	DEFB +0x07
	DEFB +0x79
	DEFB +0x07
	DEFB +0x73
	DEFB +0x06
	DEFB +0x6e
	DEFB +0x06
	DEFB +0x69
	DEFB +0x06
	DEFB +0x64
	DEFB +0x05
	DEFB +0x60
	DEFB +0x05
	DEFB +0x5c
	DEFB +0x05
	DEFB +0x59
	DEFB +0x05
	DEFB +0x55
	DEFB +0x05
	DEFB +0x52
	DEFB +0x04
	DEFB +0x4f
	DEFB +0x04
	DEFB +0x7f
	DEFB +0x03
	DEFB +0x79
	DEFB +0x03
	DEFB +0x73
	DEFB +0x03
	DEFB +0x6e
	DEFB +0x03
	DEFB +0x69
	DEFB +0x03
	DEFB +0x64
	DEFB +0x02
	DEFB +0x60
	DEFB +0x02
	DEFB +0x5c
	DEFB +0x02
	DEFB +0x59
	DEFB +0x02
	DEFB +0x56
	DEFB +0x02
	DEFB +0x52
	DEFB +0x02
	DEFB +0x4f
	DEFB +0x02
	SECTION code_compiler
;code.c:160: bool getScreenPixel(byte x, byte y) {
;	---------------------------------
; Function getScreenPixel
; ---------------------------------
_getScreenPixel:
	push	ix
	ld	ix,0
	add	ix,sp
	push	af
	push	af
	dec	sp
;code.c:162: x /= 2;
	ld	e,(ix+4)
	ld	d,0x00
	ld	c, e
	ld	b, d
	bit	7, d
	jr	Z,l_getScreenPixel_00130
	ld	c, e
	ld	b, d
	inc	bc
l_getScreenPixel_00130:
	sra	b
	rr	c
;code.c:165: if (y >= height) return false;
	ld	a,(ix+5)
	sub	a,0x40
	jr	C,l_getScreenPixel_00102
	ld	l,0x00
	jp	l_getScreenPixel_00128
l_getScreenPixel_00102:
;code.c:166: if (x >= width) return false;
	ld	a, c
	sub	a,0x30
	jr	C,l_getScreenPixel_00104
	ld	l,0x00
	jp	l_getScreenPixel_00128
l_getScreenPixel_00104:
;code.c:168: if (y < horizon) return false;
	ld	a,(ix+5)
	sub	a,0x20
	jr	NC,l_getScreenPixel_00106
	ld	l,0x00
	jp	l_getScreenPixel_00128
l_getScreenPixel_00106:
;code.c:172: if ((y - horizon) < sixteenBitHeight) {
	ld	a,(ix+5)
	ld	b,0x00
	add	a,0xe0
	ld	(ix-2),a
	ld	a, b
	adc	a,0xff
	ld	(ix-1),a
;code.c:173: unsigned short index = x + o;
	ld	b,0x00
	ld	hl,_o
	ld	e, (hl)
	ld	d,0x00
;code.c:180: angles16[element][y - horizon][1]
	ld	a,(ix+5)
	ld	(ix-5),a
;code.c:173: unsigned short index = x + o;
	ex	de,hl
	add	hl, bc
;code.c:172: if ((y - horizon) < sixteenBitHeight) {
	ld	a,(ix-2)
	sub	a,0x14
	ld	a,(ix-1)
	rla
	ccf
	rra
	sbc	a,0x80
	jp	NC, l_getScreenPixel_00126
;code.c:173: unsigned short index = x + o;
;code.c:174: index = index % (angleWidth * 4);
	ld	de,0x00d8
	push	de
	push	hl
	call	__moduint_callee
	ex	de, hl
	ld	(ix-4),e
	ld	(ix-3),d
;code.c:175: unsigned short element = index % angleWidth;
	ld	a,(ix-4)
	ld	(ix-2),a
	ld	a,(ix-3)
	ld	(ix-1),a
	ld	hl,0x0036
	push	hl
	ld	l,(ix-2)
	ld	h,(ix-1)
	push	hl
	call	__moduint_callee
	ex	de, hl
;code.c:180: angles16[element][y - horizon][1]
	ld	l, e
	ld	h, d
	add	hl, hl
	add	hl, hl
	add	hl, de
	add	hl, hl
	add	hl, hl
	add	hl, hl
	add	hl, hl
	ld	c, l
	ld	b, h
	ld	a,(ix-5)
	add	a,0xe0
	add	a, a
	add	a, a
	ld	e, a
;code.c:177: if (index < angleWidth) {
	ld	a,(ix-2)
	sub	a,0x36
	ld	a,(ix-1)
	sbc	a,0x00
	jr	NC,l_getScreenPixel_00114
;code.c:180: angles16[element][y - horizon][1]
	ld	hl,_angles16
	add	hl, bc
	ld	a, l
	add	a, e
	ld	c, a
	ld	a, h
	adc	a,0x00
	ld	b, a
	ld	l, c
	ld	h, b
	inc	hl
	inc	hl
	ld	e, (hl)
	inc	hl
	ld	d, (hl)
;code.c:179: angles16[element][y - horizon][0],
	ld	l, c
	ld	h, b
	ld	c, (hl)
	inc	hl
	ld	b, (hl)
	push	de
	push	bc
	call	_samplePixel
	pop	af
	pop	af
	jp	l_getScreenPixel_00128
l_getScreenPixel_00114:
;code.c:182: } else if (index < angleWidth * 2) {
	ld	a,(ix-4)
	sub	a,0x6c
	ld	a,(ix-3)
	sbc	a,0x00
	jr	NC,l_getScreenPixel_00111
;code.c:186: -angles16[element][y - horizon][0]
	ld	hl,_angles16
	add	hl, bc
	ld	d,0x00
	add	hl, de
	ld	c, (hl)
	inc	hl
	ld	b, (hl)
	dec	hl
	xor	a, a
	sub	a, c
	ld	c, a
	ld	a,0x00
	sbc	a, b
	ld	b, a
;code.c:185: angles16[element][y - horizon][1],
	inc	hl
	inc	hl
	ld	e, (hl)
	inc	hl
	ld	d, (hl)
	push	bc
	push	de
	call	_samplePixel
	pop	af
	pop	af
	jp	l_getScreenPixel_00128
l_getScreenPixel_00111:
;code.c:188: } else if (index < angleWidth * 3) {
	ld	a,(ix-4)
	sub	a,0xa2
	ld	a,(ix-3)
	sbc	a,0x00
	jr	NC,l_getScreenPixel_00108
;code.c:192: -angles16[element][y - horizon][1]
	ld	hl,_angles16
	add	hl, bc
	ld	a, l
	add	a, e
	ld	c, a
	ld	a, h
	adc	a,0x00
	ld	b, a
	ld	l, c
	ld	h, b
	inc	hl
	inc	hl
	ld	e, (hl)
	inc	hl
	ld	d, (hl)
	ld	hl,0x0000
	cp	a, a
	sbc	hl, de
	ex	de, hl
;code.c:191: -angles16[element][y - horizon][0],
	ld	l, c
	ld	h, b
	ld	c, (hl)
	inc	hl
	ld	b, (hl)
	ld	hl,0x0000
	cp	a, a
	sbc	hl, bc
	push	de
	push	hl
	call	_samplePixel
	pop	af
	pop	af
	jp	l_getScreenPixel_00128
l_getScreenPixel_00108:
;code.c:198: angles16[element][y - horizon][0]
	ld	hl,_angles16
	add	hl, bc
	ld	d,0x00
	add	hl, de
	ld	c, (hl)
	inc	hl
	ld	b, (hl)
	dec	hl
;code.c:197: -angles16[element][y - horizon][1],
	inc	hl
	inc	hl
	ld	e, (hl)
	inc	hl
	ld	d, (hl)
	ld	hl,0x0000
	cp	a, a
	sbc	hl, de
	push	bc
	push	hl
	call	_samplePixel
	pop	af
	pop	af
	jp	l_getScreenPixel_00128
l_getScreenPixel_00126:
;code.c:205: unsigned short index = x + o;
;code.c:206: index = index % (angleWidth * 4);
	ld	de,0x00d8
	push	de
	push	hl
	call	__moduint_callee
	ex	de, hl
	ld	(ix-4),e
	ld	(ix-3),d
;code.c:207: unsigned short element = index % angleWidth;
	ld	a,(ix-4)
	ld	(ix-2),a
	ld	a,(ix-3)
	ld	(ix-1),a
	ld	hl,0x0036
	push	hl
	ld	l,(ix-2)
	ld	h,(ix-1)
	push	hl
	call	__moduint_callee
	ex	de, hl
;code.c:212: angles8[element][y - horizon - sixteenBitHeight][1]
	ld	l, e
	ld	h, d
	add	hl, hl
	add	hl, de
	add	hl, hl
	add	hl, hl
	add	hl, hl
	ex	de, hl
	ld	a,(ix-5)
	add	a,0xcc
	add	a, a
	ld	c, a
;code.c:209: if (index < angleWidth) {
	ld	a,(ix-2)
	sub	a,0x36
	ld	a,(ix-1)
	sbc	a,0x00
	jr	NC,l_getScreenPixel_00123
;code.c:212: angles8[element][y - horizon - sixteenBitHeight][1]
	ld	hl,_angles8
	add	hl, de
	ex	de, hl
	ld	a, e
	add	a, c
	ld	e, a
	jr	NC,l_getScreenPixel_00186
	inc	d
l_getScreenPixel_00186:
	ld	l, e
	ld	h, d
	inc	hl
	ld	c, (hl)
	ld	b,0x00
;code.c:211: angles8[element][y - horizon - sixteenBitHeight][0],
	ld	a, (de)
	ld	e, a
	ld	d,0x00
	push	bc
	push	de
	call	_samplePixel
	pop	af
	pop	af
	jp	l_getScreenPixel_00128
l_getScreenPixel_00123:
;code.c:214: } else if (index < angleWidth * 2) {
	ld	a,(ix-4)
	sub	a,0x6c
	ld	a,(ix-3)
	sbc	a,0x00
	jr	NC,l_getScreenPixel_00120
;code.c:218: -angles8[element][y - horizon - sixteenBitHeight][0]
	ld	hl,_angles8
	add	hl, de
	ld	e, c
	ld	d,0x00
	add	hl, de
	ld	a, (hl)
	ld	c,0x00
	neg
	ld	e, a
	ld	a,0x00
	sbc	a, c
	ld	d, a
;code.c:217: angles8[element][y - horizon - sixteenBitHeight][1],
	inc	hl
	ld	c, (hl)
	ld	b,0x00
	push	de
	push	bc
	call	_samplePixel
	pop	af
	pop	af
	jr	l_getScreenPixel_00128
l_getScreenPixel_00120:
;code.c:220: } else if (index < angleWidth * 3) {
	ld	a,(ix-4)
	sub	a,0xa2
	ld	a,(ix-3)
	sbc	a,0x00
	jr	NC,l_getScreenPixel_00117
;code.c:224: -angles8[element][y - horizon - sixteenBitHeight][1]
	ld	hl,_angles8
	add	hl, de
	ex	de, hl
	ld	a, e
	add	a, c
	ld	e, a
	jr	NC,l_getScreenPixel_00187
	inc	d
l_getScreenPixel_00187:
	ld	l, e
	ld	h, d
	inc	hl
	ld	c, (hl)
	ld	b,0x00
	xor	a, a
	sub	a, c
	ld	c, a
	ld	a,0x00
	sbc	a, b
	ld	b, a
;code.c:223: -angles8[element][y - horizon - sixteenBitHeight][0],
	ld	a, (de)
	ld	e, a
	ld	d,0x00
	ld	hl,0x0000
	cp	a, a
	sbc	hl, de
	push	bc
	push	hl
	call	_samplePixel
	pop	af
	pop	af
	jr	l_getScreenPixel_00128
l_getScreenPixel_00117:
;code.c:230: angles8[element][y - horizon - sixteenBitHeight][0]
	ld	hl,_angles8
	add	hl, de
	ld	e, c
	ld	d,0x00
	add	hl, de
	ld	c, (hl)
	ld	b,0x00
;code.c:229: -angles8[element][y - horizon - sixteenBitHeight][1],
	inc	hl
	ld	e, (hl)
	ld	d,0x00
	ld	hl,0x0000
	cp	a, a
	sbc	hl, de
	push	bc
	push	hl
	call	_samplePixel
	pop	af
	pop	af
l_getScreenPixel_00128:
;code.c:234: }
	ld	sp, ix
	pop	ix
	ret
	SECTION code_compiler
;code.c:236: byte getScreenByte(byte x, byte y) {
;	---------------------------------
; Function getScreenByte
; ---------------------------------
_getScreenByte:
	push	ix
	ld	ix,0
	add	ix,sp
;code.c:237: byte result = 0;
;code.c:238: for (byte ox = 0; ox < 8; ox++) {
	ld	de,0x0000
l_getScreenByte_00105:
	ld	a, d
	sub	a,0x08
	jr	NC,l_getScreenByte_00103
;code.c:239: if (getScreenPixel(x + ox, y)) {
	ld	a,(ix+4)
	add	a, d
	push	de
	ld	h,(ix+5)
	push	hl
	inc	sp
	push	af
	inc	sp
	call	_getScreenPixel
	pop	af
	ld	a, l
	pop	de
	or	a, a
	jr	Z,l_getScreenByte_00106
;code.c:240: result = result | (1 << (7 - ox));
	ld	c, d
	ld	a,0x07
	sub	a, c
	ld	b, a
	ld	a,0x01
	inc	b
	jr	l_getScreenByte_00126
l_getScreenByte_00125:
	add	a, a
l_getScreenByte_00126:
	djnz	l_getScreenByte_00125
	or	a, e
	ld	e, a
l_getScreenByte_00106:
;code.c:238: for (byte ox = 0; ox < 8; ox++) {
	inc	d
	jr	l_getScreenByte_00105
l_getScreenByte_00103:
;code.c:243: return result;
	ld	l, e
;code.c:244: }
	pop	ix
	ret
	SECTION code_compiler
;code.c:246: int main()
;	---------------------------------
; Function main
; ---------------------------------
_main:
	push	ix
	ld	ix,0
	add	ix,sp
	ld	hl, -6147
	add	hl, sp
	ld	sp, hl
;code.c:251: while (true) {
	ld	hl,0
	add	hl, sp
	ld	(ix-3),l
	ld	(ix-2),h
l_main_00109:
;code.c:259: byte *bytePointer = screenArray;
	ld	c,(ix-3)
	ld	b,(ix-2)
;code.c:261: for (byte y = 0; y < /*64 */ height; y++) {
	xor	a, a
	ld	(ix-1),a
l_main_00115:
	ld	a,(ix-1)
	sub	a,0x40
	jr	NC,l_main_00102
;code.c:262: for (byte x = 0; x < 96; x += 8) {
	ld	e,0x00
l_main_00112:
	ld	a, e
	sub	a,0x60
	jr	NC,l_main_00126
;code.c:264: *bytePointer = getScreenByte(x, y);
	push	bc
	push	de
	ld	d,(ix-1)
	push	de
	call	_getScreenByte
	pop	af
	ld	a, l
	pop	de
	pop	bc
	ld	(bc), a
;code.c:265: bytePointer++;
	inc	bc
;code.c:262: for (byte x = 0; x < 96; x += 8) {
	ld	a, e
	add	a,0x08
	ld	e, a
	jr	l_main_00112
l_main_00126:
;code.c:261: for (byte y = 0; y < /*64 */ height; y++) {
	inc	(ix-1)
	jr	l_main_00115
l_main_00102:
;code.c:277: o++;
	ld	hl,_o
	inc	(hl)
;code.c:281: return 0;
;code.c:282: }
	jr	l_main_00109
	SECTION data_compiler
_o:
	DEFB +0x00
	SECTION IGNORE
